--- !tapi-tbd-v3
archs:                 [ armv7, armv7s, arm64, arm64e ]
platform:              ios
flags:                 [ flat_namespace ]
install-name:          /System/Library/Frameworks/ARKit.framework/ARKit
current-version:       1
compatibility-version: 1
objc-constraint:       retain_release
exports:
  - archs:                [ armv7, armv7s, arm64, arm64e ]
    symbols:              [ _ARAdjustIntrincisForMirroring,
                            _ARAdjustIntrincisForOrientation,
                            _ARAdjustIntrinsicsForViewportSize,
                            _ARBackFacingImageSensorAutoFocusRangeUserDefaultsKey,
                            _ARBackFacingImageSensorAutoFocusUserDefaultsKey,
                            _ARBackFacingImageSensorExposureDurationUserDefaultsKey,
                            _ARBackFacingImageSensorFrameRateUserDefaultsKey,
                            _ARBackFacingImageSensorISOUserDefaultsKey,
                            _ARBackFacingImageSensorLensPositionUserDefaultsKey,
                            _ARBackFacingImageSensorResolutionUserDefaultsKey,
                            _ARBackFacingImageSensorSmoothAutoFocusUserDefaultsKey,
                            _ARBackFacingImageSensorVideoBinnedUserDefaultsKey,
                            _ARBackFacingImageSensorWhiteBalanceUserDefaultsKey,
                            _ARBlendShapeLocationBrowDownLeft,
                            _ARBlendShapeLocationBrowDownRight,
                            _ARBlendShapeLocationBrowInnerUp,
                            _ARBlendShapeLocationBrowOuterUpLeft,
                            _ARBlendShapeLocationBrowOuterUpRight,
                            _ARBlendShapeLocationCheekPuff,
                            _ARBlendShapeLocationCheekSquintLeft,
                            _ARBlendShapeLocationCheekSquintRight,
                            _ARBlendShapeLocationEyeBlinkLeft,
                            _ARBlendShapeLocationEyeBlinkRight,
                            _ARBlendShapeLocationEyeLookDownLeft,
                            _ARBlendShapeLocationEyeLookDownRight,
                            _ARBlendShapeLocationEyeLookInLeft,
                            _ARBlendShapeLocationEyeLookInRight,
                            _ARBlendShapeLocationEyeLookOutLeft,
                            _ARBlendShapeLocationEyeLookOutRight,
                            _ARBlendShapeLocationEyeLookUpLeft,
                            _ARBlendShapeLocationEyeLookUpRight,
                            _ARBlendShapeLocationEyeSquintLeft,
                            _ARBlendShapeLocationEyeSquintRight,
                            _ARBlendShapeLocationEyeWideLeft,
                            _ARBlendShapeLocationEyeWideRight,
                            _ARBlendShapeLocationJawForward,
                            _ARBlendShapeLocationJawLeft,
                            _ARBlendShapeLocationJawOpen,
                            _ARBlendShapeLocationJawRight,
                            _ARBlendShapeLocationMouthClose,
                            _ARBlendShapeLocationMouthDimpleLeft,
                            _ARBlendShapeLocationMouthDimpleRight,
                            _ARBlendShapeLocationMouthFrownLeft,
                            _ARBlendShapeLocationMouthFrownRight,
                            _ARBlendShapeLocationMouthFunnel,
                            _ARBlendShapeLocationMouthLeft,
                            _ARBlendShapeLocationMouthLowerDownLeft,
                            _ARBlendShapeLocationMouthLowerDownRight,
                            _ARBlendShapeLocationMouthPressLeft,
                            _ARBlendShapeLocationMouthPressRight,
                            _ARBlendShapeLocationMouthPucker,
                            _ARBlendShapeLocationMouthRight,
                            _ARBlendShapeLocationMouthRollLower,
                            _ARBlendShapeLocationMouthRollUpper,
                            _ARBlendShapeLocationMouthShrugLower,
                            _ARBlendShapeLocationMouthShrugUpper,
                            _ARBlendShapeLocationMouthSmileLeft,
                            _ARBlendShapeLocationMouthSmileRight,
                            _ARBlendShapeLocationMouthStretchLeft,
                            _ARBlendShapeLocationMouthStretchRight,
                            _ARBlendShapeLocationMouthUpperUpLeft,
                            _ARBlendShapeLocationMouthUpperUpRight,
                            _ARBlendShapeLocationNoseSneerLeft,
                            _ARBlendShapeLocationNoseSneerRight,
                            _ARC3DCircumcircleContainsPoint,
                            _ARC3DCircumcircleContainsPoint_BROKEN,
                            _ARC3DComputeLinesIntersection,
                            _ARC3DComputeLinesIntersectionForPoints,
                            _ARC3DEdgeCrossingSegment,
                            _ARC3DLinkFromTriangleToTriangle,
                            _ARC3DLinkFromTriangleWithEdge,
                            _ARC3DLinkIndexFromTriangleToTriangle,
                            _ARC3DLinkIndicesFromTriangleToTriangle,
                            _ARC3DNeighborSharingVertex,
                            _ARC3DNeighborSharingVertices,
                            _ARC3DPointFallsOnTriangleEdge,
                            _ARC3DPointFallsOnTriangleEdgeAndLinks,
                            _ARC3DSegmentIntersectsSegment,
                            _ARC3DShapeConnectedComponentTriangulate,
                            _ARC3DShapeConnectedComponentTriangulatePseudopolygon,
                            _ARC3DShapeTriangulationAddEdge,
                            _ARC3DShapeTriangulationAddPoint,
                            _ARC3DShapeTriangulationCheckConsistency,
                            _ARC3DShapeTriangulationClean,
                            _ARC3DShapeTriangulationGetNewTriangle,
                            _ARC3DShapeTriangulationInit,
                            _ARC3DShapeTriangulationListCreate,
                            _ARC3DShapeTriangulationListDestroy,
                            _ARC3DShapeTriangulationListInsert,
                            _ARC3DShapeTriangulationResolveSwaps,
                            _ARC3DShapeTriangulationStackCreate,
                            _ARC3DShapeTriangulationStackDestroy,
                            _ARC3DShapeTriangulationStackPop,
                            _ARC3DShapeTriangulationStackPush,
                            _ARC3DShapeTriangulationTriangleArea,
                            _ARC3DShapeTriangulationTriangleContainingPoint,
                            _ARC3DShapeTriangulationTriangleContainingVertex,
                            _ARC3DShapeTriangulationTriangleCrossesSegment,
                            _ARC3DShapeTriangulationTriangleMark,
                            _ARC3DShapeTriangulationTriangleSplitInside,
                            _ARC3DShapeTriangulationTriangleSplitOnEdge,
                            _ARC3DVertexNotSharedByTriangles, _ARCCT2RGB,
                            _ARCameraFieldOfViewFromIntrinsics,
                            _ARCameraImageToViewTransform,
                            _ARCameraToDisplayRotation,
                            _ARCameraToWorldTransformFromCMRotationMatrix,
                            _ARCorrectCVPixelBufferOrientation,
                            _ARCreateDownScaledGrayscaleImageAndMask,
                            _ARCreateFixedPriorityDispatchQueue,
                            _ARCreateNonFixedPriorityDispatchQueue,
                            _ARDefaultRelocalizationTimeoutUserDefaultsKey,
                            _ARDepth32BitsBufferToBGRA,
                            _ARDepthRepresentationDictionary, _ARDeviceString,
                            _ARDeviceSupported, _AREqualTransforms,
                            _ARErrorCodePhotoLibraryAccessUnauthorized,
                            _ARErrorCodeRecordingFailed,
                            _ARErrorCodeTechniqueFailed,
                            _ARErrorCodeUnsupportedCaptureSessionConfiguration,
                            _ARErrorDomain, _ARErrorItemsUserInfoKey,
                            _ARErrorWithCodeAndUserInfo,
                            _AREulerAnglesFromMatrix,
                            _ARFaceTrackingImageSensorFrameRateLowUserDefaultsKey,
                            _ARFaceTrackingImageSensorFrameRateLowestUserDefaultsKey,
                            _ARFaceTrackingImageSensorFrameRateNormalUserDefaultsKey,
                            _ARFaceTrackingImageSensorMirrorUserDefaultsKey,
                            _ARFilterFaceTrackingPayload,
                            _ARFrontFacingCameraFlip,
                            _ARFrontFacingImageSensorExposureDurationUserDefaultsKey,
                            _ARFrontFacingImageSensorFrameRateUserDefaultsKey,
                            _ARFrontFacingImageSensorISOUserDefaultsKey,
                            _ARFrontFacingImageSensorResolutionUserDefaultsKey,
                            _ARFrontFacingImageSensorVideoBinnedUserDefaultsKey,
                            _ARFrontFacingImageSensorWhiteBalanceUserDefaultsKey,
                            _ARImageDetectionCustomAssetCatalogUserDefaultsKey,
                            _ARImageDetectionFixedPriorityProcessingQueueKey,
                            _ARImageDetectionNoContinuousDetectionUserDefaultsKey,
                            _ARImageDetectionNumberOfFramesBetweenDetectionsKey,
                            _ARImageDetectionPercentageThresholdKey,
                            _ARImageDetectionScaleEsimationCountUserDefaultsKey,
                            _ARImageDetectionScaleEsimationUserDefaultsKey,
                            _ARImageDetectionSkipRedetectAfterSignificantEventKey,
                            _ARImageSensorShouldSupport1080p,
                            _ARIsBuiltInCameraTypeAvailable,
                            _ARKitBuildVersionString, _ARKitVersionNumber,
                            _ARKitVersionString, _ARLinkedOnOrAfterEmet,
                            _ARLocalizedString, _ARMatrix3x3CopyValues,
                            _ARMatrix3x3Description, _ARMatrix3x3FromArray,
                            _ARMatrix3x3FromMatrix4x4, _ARMatrix3x3FromNSData,
                            _ARMatrix3x3MakeColumnMajorTransform,
                            _ARMatrix3x3MakeRotation, _ARMatrix4x3FromNSData,
                            _ARMatrix4x4CopyValues, _ARMatrix4x4Description,
                            _ARMatrix4x4ElementwiseMultiplication,
                            _ARMatrix4x4FromCMRotationMatrix,
                            _ARMatrix4x4FromNSData,
                            _ARMatrix4x4FromRotationAndTranslation,
                            _ARMatrix4x4MakeColumnMajorTransform,
                            _ARMatrix4x4MakeRotation,
                            _ARMatrix4x4MakeRowMajorTransform,
                            _ARMatrix4x4MirrorX,
                            _ARMatrix4x4RowMajorRotationAndTranslation,
                            _ARMatrixMakeFrustum,
                            _ARMotionSensorSampleRateUserDefaultsKey,
                            _AROSTypeToString, _ARPearlCameraSupported,
                            _ARPixelBufferBytesPerRow, _ARPixelBufferData,
                            _ARPixelBufferFormat, _ARPixelBufferHeight,
                            _ARPixelBufferToDictionaryRepresentation,
                            _ARPixelBufferWidth, _ARPixelBufferWithCIImage,
                            _ARPlaneDetectionOptionGridExtent,
                            _ARPlaneDetectionOptionWorldAligned,
                            _ARPlaneEstimationMaximumFeatureVarianceUserDefaultsKey,
                            _ARPlaneEstimationMinimumDetectionCountUserDefaultsKey,
                            _ARPlaneEstimationNumberCloudInHistoryUserDefaultsKey,
                            _ARPlaneEstimationUseEveryNthCloudUserDefaultsKey,
                            _ARPowerUsageForPowerPressureLevel,
                            _ARPowerUsageForThermalState,
                            _ARPrimaryLightFromSphericalHarmonics,
                            _ARRenderingToVisionCoordinateTransform,
                            _ARReplaySensorFilePathAdvanceFramesPerSecondMultiplierUserDefaultsKey,
                            _ARReplaySensorFilePathAdvanceToFrameUserDefaultsKey,
                            _ARReplaySensorFilePathNextFrameIndexUserDefaultsKey,
                            _ARReplaySensorFramerateUserDefaultsKey,
                            _ARSCNDebugOptionShowFeaturePoints,
                            _ARSCNDebugOptionShowWorldOrigin,
                            _ARScalePixelBufferMaxDimensionToNewDimension,
                            _ARSensorDataTypesToString,
                            _ARSessionCameraPositionUserDefaultsKey,
                            _ARSessionDidPauseDarwinNotification,
                            _ARSessionDidRunDarwinNotification,
                            _ARSessionFeaturePointAccumulationCount,
                            _ARSessionFeaturePointMinimumVergenceAngle,
                            _ARSessionMirroredFrameOutputUserDefaultsKey,
                            _ARSessionQATracingEnabledUserDefaultsKey,
                            _ARSessionQATracingForceQuitAppUserDefaultsKey,
                            _ARSessionQATracingFramesLabelOffsetUserDefaultsKey,
                            _ARSessionRecordingFilePathDefaultsKey,
                            _ARSessionReplayFilePathManuallyUserDefaultsKey,
                            _ARSessionReplayFilePathUserDefaultsKey,
                            _ARSessionRunOptionsToString,
                            _ARSessionUseIOKitUserDefaultsKey,
                            _ARSetupInternalLogging,
                            _ARSphericalHarmonicsByApplyingRotation,
                            _ARSphericalHarmonicsByFlippingZAxis,
                            _ARSphericalHarmonicsDataWithAmbientLight,
                            _ARSphericalHarmonicsDataWithCoefficients,
                            _ARSphericalHarmonicsDotProduct,
                            _ARSphericalHarmonicsWithDirection,
                            _ARTrackingStateReasonToString,
                            _ARTrackingStateToString,
                            _ARUnWrapFixedPointUnsigned13_3_OneComponent16Buffer_Depth32BitsBuffer,
                            _ARUnWrapOneComponent16BufferDepth32BitsBuffer,
                            _ARVector3Description, _ARVector3FromArray,
                            _ARVector3FromNSData, _ARVector3ScalarMultiplication,
                            _ARViewToCameraImageTransform,
                            _ARVisionToRenderingCoordinateTransform,
                            _ARWorldToCameraTransformFromCMRotationMatrix,
                            _ARWorldTrackingCalibrationParametersUserDefaultsKey,
                            _ARWorldTrackingLineFeaturesUserDefaultsKey,
                            _ARWorldTrackingMinVergenceAngleUserDefaultsKey,
                            _ARWorldTrackingPoseGraphUpdatesUserDefaultsKey,
                            _ARWorldTrackingUseFixedIntrinsicsUserDefaultsKey,
                            _ARWrapDepth32BitsBufferOneComponent16Buffer,
                            _ARWrapDepth32BitsBuffer_FixedPointUnsigned13_3_OneComponent16Buffer,
                            _AVDepthDataFromARDepthData,
                            _AVMetadataIdentifierQuickTimeARAccelerometerData,
                            _AVMetadataIdentifierQuickTimeARDeviceOrientationData,
                            _AVMetadataIdentifierQuickTimeARDeviceString,
                            _AVMetadataIdentifierQuickTimeARGyroscopeData,
                            _AVMetadataIdentifierQuickTimeARImageData,
                            _AVMetadataIdentifierQuickTimeARRecordedResultClasses,
                            _AVMetadataIdentifierQuickTimeARSensorDataTypeInformation,
                            _NSStringFromARPlaneDetection,
                            _NSStringFromARWorldAlignment,
                            _SurfaceDetectionAddPoseGraphPlaneUpdate,
                            _SurfaceDetectionCreateDetector,
                            _SurfaceDetectionCreateTemporalTracker,
                            _SurfaceDetectionParamsDefaultValues,
                            _SurfaceDetectionRelease,
                            _SurfaceDetectionReleasePlaneResults,
                            _SurfaceDetectionSingleShotSurfaces,
                            _SurfaceDetectionTrackSurfaces,
                            _SurfaceTrackerParamsDefaultValues,
                            _VAC_calcIntegralImageLineF32,
                            _VAC_calcIntegralImageLineF32_SIMD,
                            _VAC_calcIntegralImageLineS32,
                            _VAC_calcIntegralImageLineS32_SIMD,
                            _VAC_calcIntegralSquareImageLine,
                            _VAC_calcIntegralSquareImageLine_SIMD,
                            _VAC_convertColorGRAY8fromRGBA8_SIMD,
                            _VAC_debugAssert, _VAC_debugCatchSignals,
                            _VAC_debugCompare2D, _VAC_debugFlush, _VAC_debugPrintf,
                            _VAC_debugSetCallbacks, _VAC_debugStrGen,
                            _VAC_filterLineBinaryEdgeU8,
                            _VAC_filterLineBinaryEdgeU8_SIMD,
                            _VAC_filterLineBox3x3RGBX8,
                            _VAC_filterLineBox3x3RGBX8_SIMD,
                            _VAC_filterLineBox3x3U8,
                            _VAC_filterLineBox3x3U8_SIMD,
                            _VAC_filterLineBox5x5U8,
                            _VAC_filterLineBox5x5U8_SIMD,
                            _VAC_filterLineBoxFromIntegralF32,
                            _VAC_filterLineBoxFromIntegralF32_SIMD,
                            _VAC_filterLineBoxFromIntegralS32,
                            _VAC_filterLineBoxFromIntegralS32_SIMD,
                            _VAC_filterLineDilate3x3U8,
                            _VAC_filterLineErode3x3U8,
                            _VAC_filterLineLaplace3x3U8,
                            _VAC_filterLineLaplace3x3U8_SIMD,
                            _VAC_filterLineSumFromIntegralF32,
                            _VAC_filterLineSumFromIntegralF32_SIMD,
                            _VAC_filterLineSumFromIntegralS32,
                            _VAC_filterLineSumFromIntegralS32_SIMD,
                            _VAC_scale2FlipU8_SIMD, _VAC_scaleDown15S16,
                            _VAC_scaleDown15S16_SIMD, _VAC_scaleDown15U8,
                            _VAC_scaleDown15U8_SIMD, _VAC_scaleDown20S16,
                            _VAC_scaleDown20S16_SIMD, _VAC_scaleDown20U8,
                            _VAC_scaleDown20U8_SIMD,
                            __Z11ConvertHullRN3cva6MatrixIfLj3ELj3EEERNS0_IfLj4ELj4EEERNSt3__16vectorINS0_IfLj2ELj1EEENS5_9allocatorIS7_EEEEfR13SurfaceExtent,
                            __Z12ConvertPlaneRKN3acv8geometry5PlaneIfEEP21SurfaceDetectionPlane,
                            __Z12addToHistoryRKP23SurfaceDetectionContextRKNSt3__110shared_ptrIKN3acv8geometry10PointCloudIfEEEERKNS5_8OptionalINS3_6vectorIfNS3_9allocatorIfEEEEvEE,
                            __Z13ConvertExtentRN3cva6MatrixIfLj3ELj3EEERNS0_IfLj4ELj4EEERNSt3__16vectorIN3acv8geometry12BoundingBox2IfLNS8_16BoundingBoxFlagsE1EEENS5_9allocatorISB_EEEEfR13SurfaceExtent,
                            __Z17getVergenceAnglesPKfi,
                            __Z19pointCloudFromArrayP21SurfaceDetectionPointi,
                            __Z21ARCVAMatrixFromMatrix13simd_float3x3,
                            __Z21ARCVAMatrixFromMatrix13simd_float4x4,
                            __Z21ARMatrixFromCVAMatrixRKN3cva6MatrixIfLj3ELj3EEE,
                            __Z21ARMatrixFromCVAMatrixRKN3cva6MatrixIfLj4ELj4EEE,
                            __Z21VIOPoseResultCallbackPvdP10__CVBufferPKdS3_20CV3DVIOTrackingStatePK14__CFDictionary,
                            __Z22VIOErrorResultCallbackPvd12CV3DVIOErrorPK14__CFDictionary,
                            __Z25updatePlanesFromPoseGraphP23SurfaceDetectionContextRKN3acv4math13PinholeCameraERKN3cva15SE3GroupStorageIfNS6_6MatrixIfLj4ELj4EEEEE,
                            __Z26updateWithHistoryofRecordsRKP23SurfaceDetectionContextRNSt3__110shared_ptrIKN3acv8geometry10PointCloudIfEEEERNS5_8OptionalINS3_6vectorIfNS3_9allocatorIfEEEEvEE,
                            __Z27VIOPointCloudResultCallbackPvdP9CV3DPointi,
                            __Z27VIOSignificantEventCallbackPv23CV3DVIOSignificantEventPK14__CFDictionary,
                            __Z35ConvertTemporalPlanarModelsToOutputP23SurfaceDetectionContextRNSt3__16vectorINS1_10shared_ptrIN3acv6vision10algorithms19TemporalPlanarModelEEENS1_9allocatorIS8_EEEER17SurfaceExtentTypeR16SurfaceAlignmentbRi,
                            __Z40ARSurfaceExtentTypeForPlaneDetectionTypem,
                            __Z41ARSurfaceOrientationForPlaneDetectionTypem,
                            __ZN10thirdparty10quadprogpp12print_matrixEPKcRKNS0_6MatrixIdEEii,
                            __ZN10thirdparty10quadprogpp14add_constraintERNS0_6MatrixIdEES3_RNS0_6VectorIdEERiRd,
                            __ZN10thirdparty10quadprogpp14cholesky_solveERKNS0_6MatrixIdEERNS0_6VectorIdEERKS6_,
                            __ZN10thirdparty10quadprogpp14solve_quadprogERNS0_6MatrixIdEERNS0_6VectorIdEERKS2_RKS5_S8_SA_S6_,
                            __ZN10thirdparty10quadprogpp17delete_constraintERNS0_6MatrixIdEES3_RNS0_6VectorIiEERNS4_IdEEiiRii,
                            __ZN10thirdparty10quadprogpp22cholesky_decompositionERNS0_6MatrixIdEE,
                            __ZN3acv18ComputationHistoryC1ERKNS_23IComputationHistoryImplE,
                            __ZN3acv18ComputationHistoryC1ERKNSt3__110shared_ptrINS_23IComputationHistoryImplEEE,
                            __ZN3acv18ComputationHistoryC1ERKS0_,
                            __ZN3acv18ComputationHistoryC2ERKNS_23IComputationHistoryImplE,
                            __ZN3acv18ComputationHistoryC2ERKNSt3__110shared_ptrINS_23IComputationHistoryImplEEE,
                            __ZN3acv18ComputationHistoryC2ERKS0_,
                            __ZN3acv18ComputationHistoryD0Ev,
                            __ZN3acv18ComputationHistoryD1Ev,
                            __ZN3acv18ComputationHistoryD2Ev,
                            __ZN3acv18ComputationStorage15createAsHistoryEv,
                            __ZN3acv18ComputationStorage23findOrComputeResultImplERNS_20IHashableComputationE,
                            __ZN3acv18ComputationStorage5clearEv,
                            __ZN3acv18ComputationStorage6createEv,
                            __ZN3acv18ComputationStorageC1Ev,
                            __ZN3acv18ComputationStorageC2Ev,
                            __ZN3acv18ComputationStorageD0Ev,
                            __ZN3acv18ComputationStorageD1Ev,
                            __ZN3acv18ComputationStorageD2Ev,
                            __ZN3acv19IComputationHistoryC2Ev,
                            __ZN3acv19IComputationHistoryD0Ev,
                            __ZN3acv19IComputationHistoryD1Ev,
                            __ZN3acv19IComputationHistoryD2Ev,
                            __ZN3acv20IHashableComputation17checkAndUseResultERKS0_,
                            __ZN3acv20IHashableComputation3runEv,
                            __ZN3acv20IHashableComputation4initENSt3__110shared_ptrIS0_EE,
                            __ZN3acv20IHashableComputation4selfEv,
                            __ZN3acv20IHashableComputationC2ERKNS_18ComputationHistoryE,
                            __ZN3acv20IHashableComputationD0Ev,
                            __ZN3acv20IHashableComputationD1Ev,
                            __ZN3acv20IHashableComputationD2Ev,
                            __ZN3acv20IHashableComputationclEv,
                            __ZN3acv22WeakComputationHistoryC1ERKNS_18ComputationHistoryE,
                            __ZN3acv22WeakComputationHistoryC1ERKS0_,
                            __ZN3acv22WeakComputationHistoryC2ERKNS_18ComputationHistoryE,
                            __ZN3acv22WeakComputationHistoryC2ERKS0_,
                            __ZN3acv22WeakComputationHistoryD0Ev,
                            __ZN3acv22WeakComputationHistoryD1Ev,
                            __ZN3acv22WeakComputationHistoryD2Ev,
                            __ZN3acv23IComputationHistoryImpl22useResultInComputationERNS_20IHashableComputationERKS1_,
                            __ZN3acv23IComputationHistoryImpl24computeComputationResultERNS_20IHashableComputationE,
                            __ZN3acv23IComputationHistoryImpl33computationsOfCompatibleTypeEqualERKNS_20IHashableComputationES3_,
                            __ZN3acv23IComputationHistoryImpl4initENSt3__110shared_ptrIS0_EE,
                            __ZN3acv23IComputationHistoryImpl4selfEv,
                            __ZN3acv23IComputationHistoryImplC2Ev,
                            __ZN3acv23IComputationHistoryImplD0Ev,
                            __ZN3acv23IComputationHistoryImplD1Ev,
                            __ZN3acv23IComputationHistoryImplD2Ev,
                            __ZN3acv23IWeakComputationHistoryC2Ev,
                            __ZN3acv23IWeakComputationHistoryD0Ev,
                            __ZN3acv23IWeakComputationHistoryD1Ev,
                            __ZN3acv23IWeakComputationHistoryD2Ev,
                            __ZN3acv25DefaultComputationHistory10historyMapEv,
                            __ZN3acv25DefaultComputationHistory15historyMapMutexEv,
                            __ZN3acv25DefaultComputationHistory19DefaultHistoryEntry23createNewDefaultHistoryEv,
                            __ZN3acv25DefaultComputationHistory19DefaultHistoryEntryC1EmNSt3__110shared_ptrIKNS_19IComputationHistoryEEEb,
                            __ZN3acv25DefaultComputationHistory19DefaultHistoryEntryC2EmNSt3__110shared_ptrIKNS_19IComputationHistoryEEEb,
                            __ZN3acv25DefaultComputationHistory3getEmm,
                            __ZN3acv25DefaultComputationHistory3setEmNSt3__110shared_ptrIKNS_19IComputationHistoryEEE,
                            __ZN3acv25DefaultComputationHistory5clearEm,
                            __ZN3acv25DefaultComputationHistory7getImplEmm,
                            __ZN3acv3Log7contextEv, __ZN3acv4math10ACV_PI64_2E,
                            __ZN3acv4math12ACV_DEGTORADE,
                            __ZN3acv4math12ACV_RADTODEGE,
                            __ZN3acv4math13PinholeCamera18setCameraImageSizeERKjS3_,
                            __ZN3acv4math13PinholeCamera6createENSt3__110shared_ptrINS0_18PinholeCameraModelEEERKjS7_,
                            __ZN3acv4math13PinholeCamera6createERKNS0_18PinholeCameraModel10ParametersERKjS7_,
                            __ZN3acv4math13PinholeCamera6createEffffRKjS3_,
                            __ZN3acv4math13PinholeCameraC1ENSt3__110shared_ptrINS0_18PinholeCameraModelEEERKjS7_,
                            __ZN3acv4math13PinholeCameraC2ENSt3__110shared_ptrINS0_18PinholeCameraModelEEERKjS7_,
                            __ZN3acv4math14ACV_DEGTORAD64E,
                            __ZN3acv4math14ACV_RADTODEG64E,
                            __ZN3acv4math14MathTypeTraitsIdE20DefaultRoundingErrorE,
                            __ZN3acv4math14MathTypeTraitsIfE20DefaultRoundingErrorE,
                            __ZN3acv4math14MathTypeTraitsIiE20DefaultRoundingErrorE,
                            __ZN3acv4math14MathTypeTraitsIxE20DefaultRoundingErrorE,
                            __ZN3acv4math18PinholeCameraModel13setParametersERKNS1_10ParametersE,
                            __ZN3acv4math18PinholeCameraModel13setParametersEffff,
                            __ZN3acv4math18PinholeCameraModel15parametersValidERKNS1_10ParametersE,
                            __ZN3acv4math18PinholeCameraModel27updatePrecomputedParametersEv,
                            __ZN3acv4math18PinholeCameraModel6createERKNS1_10ParametersE,
                            __ZN3acv4math18PinholeCameraModel6createEffff,
                            __ZN3acv4math18PinholeCameraModelC1ERKNS1_10ParametersE,
                            __ZN3acv4math18PinholeCameraModelC1ERKS1_,
                            __ZN3acv4math18PinholeCameraModelC2ERKNS1_10ParametersE,
                            __ZN3acv4math18PinholeCameraModelC2ERKS1_,
                            __ZN3acv4math18PinholeCameraModelD0Ev,
                            __ZN3acv4math18PinholeCameraModelD1Ev,
                            __ZN3acv4math18PinholeCameraModelD2Ev,
                            __ZN3acv4math18PinholeCameraModelaSERKS1_,
                            __ZN3acv4math26cDefaultRoundingErrorFloatE,
                            __ZN3acv4math27cDefaultRoundingErrorDoubleE,
                            __ZN3acv4math4log2ERKd, __ZN3acv4math4log2ERKf,
                            __ZN3acv4math6ACV_PIE, __ZN3acv4math8ACV_PI64E,
                            __ZN3acv4math8ACV_PI_2E,
                            __ZN3acv4time10TimerApple10startTimerENSt3__16chrono8durationIxNS2_5ratioILl1ELl1000000000EEEEE,
                            __ZN3acv4time10TimerApple21getElapsedNanosecondsEv,
                            __ZN3acv4time10TimerApple24getSystemUpTimeInSecondsEv,
                            __ZN3acv4time10TimerApple6resumeEv,
                            __ZN3acv4time10TimerApple9isRunningEv,
                            __ZN3acv4time10TimerApple9stopTimerEv,
                            __ZN3acv4time10TimerAppleC1Ev,
                            __ZN3acv4time10TimerAppleC2Ev,
                            __ZN3acv4time6ITimer11createTimerEv,
                            __ZN3acv4time6ITimer13getSystemTimeEv,
                            __ZN3acv4time6ITimer15getSystemUpTimeEv,
                            __ZN3acv6vision10algorithms12ChromaFilter6filterENS_8graphics10ImageViewTIKhEERKNSt3__16vectorINS1_8LandmarkENS7_9allocatorIS9_EEEE,
                            __ZN3acv6vision10algorithms12ChromaFilter6isSkinEv,
                            __ZN3acv6vision10algorithms12ChromaFilter7uvl2indERKN3cva6MatrixIfLj3ELj1EEE,
                            __ZN3acv6vision10algorithms12ChromaFilter7xyz2uvlERKN3cva6MatrixIfLj3ELj1EEERS5_,
                            __ZN3acv6vision10algorithms12ChromaFilter9checkSkinEj,
                            __ZN3acv6vision10algorithms12ChromaFilter9ycbcr2xyzERKN3cva6MatrixIfLj4ELj1EEE,
                            __ZN3acv6vision10algorithms14RTFSPContainer12rtfspDefaultEv,
                            __ZN3acv6vision10algorithms14RTFSPContainer16loadRtfspDefaultEv,
                            __ZN3acv6vision10algorithms14RTFSPContainer9loadRtfspENS_8OptionalIKNSt3__112basic_stringIcNS4_11char_traitsIcEENS4_9allocatorIcEEEEvEE,
                            __ZN3acv6vision10algorithms14RTFSPContainer9loadRtfspERKNSt3__112basic_stringIcNS3_11char_traitsIcEENS3_9allocatorIcEEEE,
                            __ZN3acv6vision10algorithms14RTFSPContainer9loadRtfspERNSt3__113basic_istreamIcNS3_11char_traitsIcEEEE,
                            __ZN3acv6vision10algorithms16FaceTrackingDataC1ERKN3cva6MatrixIfLj3ELj3EEERKNSt3__16vectorINS1_8LandmarkENS8_9allocatorISA_EEEE,
                            __ZN3acv6vision10algorithms16FaceTrackingDataC2ERKN3cva6MatrixIfLj3ELj3EEERKNSt3__16vectorINS1_8LandmarkENS8_9allocatorISA_EEEE,
                            __ZN3acv6vision10algorithms17HoughLineDetector10accumulateERKNSt3__16vectorIN3cva6MatrixIfLj2ELj1EEENS3_9allocatorIS7_EEEERKNS_8OptionalINS4_INS6_IfLj2ELj2EEENS8_ISE_EEEEvEE,
                            __ZN3acv6vision10algorithms17HoughLineDetector11detectLinesERKNSt3__16vectorIN3cva6MatrixIfLj2ELj1EEENS3_9allocatorIS7_EEEERKNS_8OptionalINS4_INS6_IfLj2ELj2EEENS8_ISE_EEEEvEE,
                            __ZN3acv6vision10algorithms17HoughLineDetector13k_maxRhoSigmaE,
                            __ZN3acv6vision10algorithms17HoughLineDetector15k_maxThetaSigmaE,
                            __ZN3acv6vision10algorithms17HoughLineDetector4voteERKN3cva6MatrixIfLj2ELj1EEES7_RKNS4_IfLj2ELj2EEESA_,
                            __ZN3acv6vision10algorithms17HoughLineDetectorC1ERKNS2_6ParamsE,
                            __ZN3acv6vision10algorithms17HoughLineDetectorC2ERKNS2_6ParamsE,
                            __ZN3acv6vision10algorithms17PointsUncertainty7k_xyVarE,
                            __ZN3acv6vision10algorithms17PointsUncertaintyC1ERKNSt3__16vectorIfNS3_9allocatorIfEEEERKN3cva15SE3GroupStorageIfNSA_6MatrixIfLj4ELj4EEEEE,
                            __ZN3acv6vision10algorithms17PointsUncertaintyC2ERKNSt3__16vectorIfNS3_9allocatorIfEEEERKN3cva15SE3GroupStorageIfNSA_6MatrixIfLj4ELj4EEEEE,
                            __ZN3acv6vision10algorithms18FaceLightOptimizer11solveLinearERKN3cva6MatrixIfLj0ELj1EEERKNS4_IfLj0ELj0EEENS_8OptionalIRfvEE,
                            __ZN3acv6vision10algorithms18FaceLightOptimizer14solveQuadraticERKN3cva6MatrixIfLj0ELj1EEERKNS4_IfLj0ELj0EEEbfNS_8OptionalIRfvEE,
                            __ZN3acv6vision10algorithms18FaceLightOptimizer15penaltyFunctionERKN3cva6MatrixIfLj9ELj1EEERKNS4_IfLj0ELj1EEERKNS4_IfLj0ELj0EEE,
                            __ZN3acv6vision10algorithms18FaceLightOptimizer17computeConfidenceERKN3cva6MatrixIfLj9ELj1EEERKNS4_IfLj0ELj1EEERKNS4_IfLj0ELj0EEE,
                            __ZN3acv6vision10algorithms18FaceLightOptimizer7computeERKNSt3__16vectorINS3_4pairIfN3cva6MatrixIfLj1ELj0EEEEENS3_9allocatorIS9_EEEERKNS4_ImNSA_ImEEEEffNS_8OptionalIRfvEE,
                            __ZN3acv6vision10algorithms18FaceLightOptimizer9inlierSetERKN3cva6MatrixIfLj9ELj1EEEfNS4_IfLj0ELj1EEERKNS4_IfLj0ELj0EEE,
                            __ZN3acv6vision10algorithms18writeTriangleLabelERKN3cva6MatrixIfLj2ELj1EEES6_S6_tiiPt,
                            __ZN3acv6vision10algorithms19PrecomputedFaceDataC1ENS_8OptionalIKNSt3__112basic_stringIcNS4_11char_traitsIcEENS4_9allocatorIcEEEEvEE,
                            __ZN3acv6vision10algorithms19PrecomputedFaceDataC2ENS_8OptionalIKNSt3__112basic_stringIcNS4_11char_traitsIcEENS4_9allocatorIcEEEEvEE,
                            __ZN3acv6vision10algorithms19PrecomputedFaceDataD1Ev,
                            __ZN3acv6vision10algorithms19PrecomputedFaceDataD2Ev,
                            __ZN3acv6vision10algorithms19TemporalPlanarModel15finishIterationEv,
                            __ZN3acv6vision10algorithms19TemporalPlanarModel16updateConvexHullEv,
                            __ZN3acv6vision10algorithms19TemporalPlanarModel20planesShouldBeMergedERKS2_S4_ff,
                            __ZN3acv6vision10algorithms19TemporalPlanarModel21updateAlignedExtentQTERf,
                            __ZN3acv6vision10algorithms19TemporalPlanarModel25updatePlaneReferenceFrameERKN3cva15SE3GroupStorageIfNS3_6MatrixIfLj4ELj4EEEEE,
                            __ZN3acv6vision10algorithms19TemporalPlanarModel26getValidExtentInImageSpaceERKN3cva15SE3GroupStorageIfNS3_6MatrixIfLj4ELj4EEEEERKNSt3__110shared_ptrINS_4math13PinholeCameraEEEff,
                            __ZN3acv6vision10algorithms19TemporalPlanarModel28recomputeOriginBasedOnExtentEv,
                            __ZN3acv6vision10algorithms19TemporalPlanarModel5mergeERKNSt3__16vectorINS3_10shared_ptrIS2_EENS3_9allocatorIS6_EEEESB_,
                            __ZN3acv6vision10algorithms19TemporalPlanarModel8QuadTree10insertQuadERKNSt3__15arrayIN3cva6MatrixIfLj2ELj1EEELm4EEEiPNS4_6vectorIiNS4_9allocatorIiEEEE,
                            __ZN3acv6vision10algorithms19TemporalPlanarModel8QuadTree14insertTriangleERKNSt3__15arrayIN3cva6MatrixIfLj2ELj1EEELm3EEEiPNS4_6vectorIiNS4_9allocatorIiEEEE,
                            __ZN3acv6vision10algorithms19TemporalPlanarModel8QuadTree15finishIterationEi,
                            __ZN3acv6vision10algorithms19TemporalPlanarModel8QuadTree16extendIfRequiredERKN3cva6MatrixIfLj2ELj1EEE,
                            __ZN3acv6vision10algorithms19TemporalPlanarModel8QuadTree19updateFullyOccupiedEi,
                            __ZN3acv6vision10algorithms19TemporalPlanarModel8QuadTree19updateFullyOccupiedEv,
                            __ZN3acv6vision10algorithms19TemporalPlanarModel8QuadTree26getValidExtentInImageSpaceERKN3cva6MatrixIfLj3ELj2EEERKNS5_IfLj3ELj1EEERKNSt3__110shared_ptrINS_4math13PinholeCameraEEERKNS1_18RectangularPyramidIfEE,
                            __ZN3acv6vision10algorithms19TemporalPlanarModel8QuadTree35getValidExtentInImageSpaceRecursiveERKN3cva6MatrixIfLj3ELj2EEERKNS5_IfLj3ELj1EEERKNSt3__110shared_ptrINS_4math13PinholeCameraEEERKNS1_18RectangularPyramidIfEEiRNSC_6vectorINS5_IfLj2ELj1EEENSC_9allocatorISO_EEEE,
                            __ZN3acv6vision10algorithms19TemporalPlanarModel8QuadTree36updateMinDetectionsWithInvolvedCellsERNSt3__113unordered_mapIiiNS4_4hashIiEENS4_8equal_toIiEENS4_9allocatorINS4_4pairIKiiEEEEEE,
                            __ZN3acv6vision10algorithms19TemporalPlanarModel8QuadTree4Cell14getChildBoundsERNSt3__15arrayINS2_22AxisAlignedBoundingBoxIfEELm4EEE,
                            __ZN3acv6vision10algorithms19TemporalPlanarModel8QuadTree4Cell17updateTightBoundsERKN3cva6MatrixIfLj2ELj1EEE,
                            __ZN3acv6vision10algorithms19TemporalPlanarModel8QuadTree4CellC1Ev,
                            __ZN3acv6vision10algorithms19TemporalPlanarModel8QuadTree4CellC2Ev,
                            __ZN3acv6vision10algorithms19TemporalPlanarModel8QuadTree5resetERKNSt3__16vectorIN3cva6MatrixIfLj2ELj1EEENS4_9allocatorIS8_EEEE,
                            __ZN3acv6vision10algorithms19TemporalPlanarModel8QuadTree5resetEv,
                            __ZN3acv6vision10algorithms19TemporalPlanarModel8QuadTree6insertERKN3cva6MatrixIfLj2ELj1EEEiPNSt3__16vectorIiNS9_9allocatorIiEEEE,
                            __ZN3acv6vision10algorithms19TemporalPlanarModel8QuadTreeC1Ef,
                            __ZN3acv6vision10algorithms19TemporalPlanarModel8QuadTreeC2Ef,
                            __ZN3acv6vision10algorithms19TemporalPlanarModel9getExtentEPNS_8geometry12BoundingBox2IfLNS3_16BoundingBoxFlagsE1EEEPNSt3__16vectorIS6_NS8_9allocatorIS6_EEEEPNS9_IN3cva6MatrixIfLj2ELj1EEENSA_ISG_EEEEbbRNSE_15SE3GroupStorageIfNSF_IfLj4ELj4EEEEESN_Rf,
                            __ZN3acv6vision10algorithms19TemporalPlanarModelC1EyRKNS_8geometry5PlaneIfEEbfif,
                            __ZN3acv6vision10algorithms19TemporalPlanarModelC2EyRKNS_8geometry5PlaneIfEEbfif,
                            __ZN3acv6vision10algorithms20kFLEDarkCoefficientsEv,
                            __ZN3acv6vision10algorithms20writeUpTriangleLabelERKN3cva6MatrixIiLj2ELj1EEES6_S6_tiPt,
                            __ZN3acv6vision10algorithms21FacialLightEstimation13estimateLightERKNS1_10FLEOptionsERKNS1_16FaceTrackingDataENS_8graphics10ImageViewTIKhEE,
                            __ZN3acv6vision10algorithms21FacialLightEstimation13rotateShCoeffERKN3cva6MatrixIfLj9ELj1EEERKNS4_IfLj3ELj3EEE,
                            __ZN3acv6vision10algorithms21FacialLightEstimation15flipAxesShCoeffERKN3cva6MatrixIfLj9ELj1EEEbbb,
                            __ZN3acv6vision10algorithms21FacialLightEstimation20approxRollingAverageENS_8OptionalIN3cva6MatrixIfLj9ELj1EEEvEERKS6_f,
                            __ZN3acv6vision10algorithms21FacialLightEstimation25populateValidImageSamplesENS_8graphics10ImageViewTIKhEERKNSt3__16vectorIiNS7_9allocatorIiEEEERKNS8_INS1_8LandmarkENS9_ISE_EEEESD_,
                            __ZN3acv6vision10algorithms21FacialLightEstimationC1Ev,
                            __ZN3acv6vision10algorithms21FacialLightEstimationC2Ev,
                            __ZN3acv6vision10algorithms21FacialLightEstimationD0Ev,
                            __ZN3acv6vision10algorithms21FacialLightEstimationD1Ev,
                            __ZN3acv6vision10algorithms21FacialLightEstimationD2Ev,
                            __ZN3acv6vision10algorithms21TemporalPlaneDetector14renderPlaneIDsERKNSt3__16vectorIN3cva6MatrixIfLj3ELj1EEENS3_9allocatorIS7_EEEERKNS4_INS1_31PlaneDetectionResultWithSupportENS8_ISD_EEEERNS4_ItNS8_ItEEEE,
                            __ZN3acv6vision10algorithms21TemporalPlaneDetector25reconstructMeasuredPlanesERKNSt3__16vectorIN3cva6MatrixIfLj3ELj1EEENS3_9allocatorIS7_EEEERKNS4_INS1_31PlaneDetectionResultWithSupportENS8_ISD_EEEE,
                            __ZN3acv6vision10algorithms21TemporalPlaneDetector27createTemporalPlaneDetectorERKNS2_10ParametersE,
                            __ZN3acv6vision10algorithms21TemporalPlaneDetector5mergeERNSt3__16vectorINS1_19TemporalPlanarModelENS3_9allocatorIS5_EEEERKNS4_ItNS6_ItEEEEiff,
                            __ZN3acv6vision10algorithms21TemporalPlaneDetector8getModelEmffyRKNS_4math13PinholeCameraERKN3cva15SE3GroupStorageIfNS7_6MatrixIfLj4ELj4EEEEE,
                            __ZN3acv6vision10algorithms21TemporalPlaneDetector9addPlanesERKNS_4math13PinholeCameraERKN3cva15SE3GroupStorageIfNS7_6MatrixIfLj4ELj4EEEEERKNSt3__16vectorINS9_IfLj3ELj1EEENSE_9allocatorISG_EEEERKNSF_INS1_31PlaneDetectionResultWithSupportENSH_ISM_EEEE,
                            __ZN3acv6vision10algorithms21VerticalPlaneDetector12detectPlanesENSt3__110shared_ptrIKNS_8geometry10PointCloudIfEEEERKN3cva15SE3GroupStorageIfNSA_6MatrixIfLj4ELj4EEEEENS_8OptionalIRKNS3_6vectorIfNS3_9allocatorIfEEEEvEENSH_IRKNSI_ImNSJ_ImEEEEvEE,
                            __ZN3acv6vision10algorithms21VerticalPlaneDetector17createHoughParamsERKNS2_6ParamsE,
                            __ZN3acv6vision10algorithms21VerticalPlaneDetector18selectVotingPointsENSt3__110shared_ptrIKNS_8geometry10PointCloudIfEEEENS_8OptionalIRKNS3_6vectorImNS3_9allocatorImEEEEvEE,
                            __ZN3acv6vision10algorithms21VerticalPlaneDetector21computeVerticalPlanesENSt3__110shared_ptrIKNS_8geometry10PointCloudIfEEEENS_8OptionalIRKNS1_17PointsUncertaintyEvEENSA_IRKNS3_6vectorImNS3_9allocatorImEEEEvEE,
                            __ZN3acv6vision10algorithms21VerticalPlaneDetector6createERKNS2_6ParamsE,
                            __ZN3acv6vision10algorithms22writeDownTriangleLabelERKN3cva6MatrixIiLj2ELj1EEES6_S6_tiPt,
                            __ZN3acv6vision10algorithms23HorizontalPlaneDetector6createERKNS2_6ParamsE,
                            __ZN3acv6vision10algorithms26kFLEInequalityCoefficientsEv,
                            __ZN3acv6vision10algorithms29computeUncertaintyAlongNormalERKNS1_20PlaneDetectionResultERKNS1_17PointsUncertaintyE,
                            __ZN3acv6vision10algorithms34VerticalAndHorizontalPlaneDetector12detectPlanesENSt3__110shared_ptrIKNS_8geometry10PointCloudIfEEEERKN3cva6MatrixIfLj3ELj1EEERKNS3_6vectorIfNS3_9allocatorIfEEEERKNSA_15SE3GroupStorageIfNSB_IfLj4ELj4EEEEENS_8OptionalIRKNSF_ImNSG_ImEEEEvEEbb,
                            __ZN3acv6vision10algorithms34VerticalAndHorizontalPlaneDetector12detectPlanesENSt3__110shared_ptrIKNS_8geometry10PointCloudIfEEEERKN3cva6MatrixIfLj3ELj1EEEbb,
                            __ZN3acv6vision10algorithms34VerticalAndHorizontalPlaneDetector19detectPlanesPrivateENSt3__110shared_ptrIKNS_8geometry10PointCloudIfEEEERKN3cva6MatrixIfLj3ELj1EEEbbRKNSA_15SE3GroupStorageIfNSB_IfLj4ELj4EEEEENS_8OptionalIRKNS3_6vectorIfNS3_9allocatorIfEEEEvEENSK_IRKNSL_ImNSM_ImEEEEvEE,
                            __ZN3acv6vision10algorithms34VerticalAndHorizontalPlaneDetector27refinePlaneDetectionResultsERNSt3__16vectorINS1_20PlaneDetectionResultENS3_9allocatorIS5_EEEERKN3cva6MatrixIfLj3ELj1EEE,
                            __ZN3acv6vision10algorithms34VerticalAndHorizontalPlaneDetector31computeUncertaintyForPointCloudENSt3__110shared_ptrIKNS_8geometry10PointCloudIfEEEERKN3cva15SE3GroupStorageIfNSA_6MatrixIfLj4ELj4EEEEERKNS_4math13PinholeCameraERKNS3_6vectorIfNS3_9allocatorIfEEEEf,
                            __ZN3acv6vision10algorithms34VerticalAndHorizontalPlaneDetector31computeUncertaintyForPointCloudENSt3__110shared_ptrIKNS_8geometry10PointCloudIfEEEERKN3cva15SE3GroupStorageIfNSA_6MatrixIfLj4ELj4EEEEERKNS_4math13PinholeCameraEff,
                            __ZN3acv6vision10algorithms34VerticalAndHorizontalPlaneDetector6createERKNS1_23HorizontalPlaneDetector6ParamsERKNS1_21VerticalPlaneDetector6ParamsERKNS2_16ExtentParametersE,
                            __ZN3acv6vision10algorithms35DensifyThroughDelaunayTriangulation15splitAndDensifyERKNSt3__16vectorINS1_20PlaneDetectionResultENS3_9allocatorIS5_EEEEmmfffff,
                            __ZN3acv6vision10algorithms35DensifyThroughDelaunayTriangulation17initializeVoronoiEv,
                            __ZN3acv6vision10algorithms35DensifyThroughDelaunayTriangulation27candidatesForVerticalPlanesEfN3cva6MatrixIfLj3ELj1EEE,
                            __ZN3acv6vision10algorithms9runSolverERKNSt3__16vectorINS2_4pairIfN3cva6MatrixIfLj1ELj0EEEEENS2_9allocatorIS8_EEEERKNS1_10FLEOptionsENS_8OptionalIRfvEE,
                            __ZN3acv6vision10estimation13projectPointsEiPKfS3_PfS4_RKN3cva6MatrixIfLj3ELj3EEE,
                            __ZN3acv6vision10estimation15normalizePointsERNSt3__16vectorIN3cva6MatrixIfLj2ELj1EEENS2_9allocatorIS6_EEEERfSB_SB_,
                            __ZN3acv6vision10estimation17computeHomographyERNSt3__16vectorIN3cva6MatrixIfLj2ELj1EEENS2_9allocatorIS6_EEEESA_RNS5_IfLj3ELj3EEE,
                            __ZN3acv6vision10estimation17denormalizePointsERNSt3__16vectorIN3cva6MatrixIfLj2ELj1EEENS2_9allocatorIS6_EEEEfff,
                            __ZN3acv6vision10estimation19LinearPoseEstimator12estimatePoseERKN3cva6MatrixIfLj3ELj3EEERNS4_IfLj4ELj4EEE,
                            __ZN3acv6vision10estimation19LinearPoseEstimator18estimateHomographyERN3cva6MatrixIfLj3ELj3EEE,
                            __ZN3acv6vision10estimation19LinearPoseEstimator8estimateERN3cva6MatrixIfLj3ELj3EEERNS4_IfLj4ELj4EEEPKfSA_i,
                            __ZN3acv6vision10estimation19LinearPoseEstimatorC1Ev,
                            __ZN3acv6vision10estimation19LinearPoseEstimatorC2Ev,
                            __ZN3acv6vision10estimation19LinearPoseEstimatorD0Ev,
                            __ZN3acv6vision10estimation19LinearPoseEstimatorD1Ev,
                            __ZN3acv6vision10estimation19LinearPoseEstimatorD2Ev,
                            __ZN3acv6vision10estimation19RobustPoseEstimator17computeRobustPoseEPKfS4_iRN3cva6MatrixIfLj4ELj4EEEi,
                            __ZN3acv6vision10estimation19normalizeHomographyERN3cva6MatrixIfLj3ELj3EEE,
                            __ZN3acv6vision10estimation20homography_transformEffRfS2_RKN3cva6MatrixIfLj3ELj3EEE,
                            __ZN3acv6vision10estimation21denormalizeHomographyERN3cva6MatrixIfLj3ELj3EEEffffff,
                            __ZN3acv6vision10estimation33refinePoseFrom3D2DCorrespondencesEPKfS3_iRN3cva6MatrixIfLj4ELj4EEEi,
                            __ZN3acv6vision10estimation37computeHomographyFromNCorrespondencesEPKfS3_iRN3cva6MatrixIfLj3ELj3EEE,
                            __ZN3acv6vision10estimation40computeHomographyFrom2D2DCorrespondencesEPKfS3_iRN3cva6MatrixIfLj3ELj3EEE,
                            __ZN3acv6vision10estimation40computeHomographyFromFourCorrespondencesEPKfS3_RN3cva6MatrixIfLj3ELj3EEE,
                            __ZN3acv6vision10extraction15extractContoursENS_8graphics10ImageViewTIhEERNSt3__16vectorINS6_INS0_7feature5PixelIiEENS5_9allocatorIS9_EEEENSA_ISC_EEEE,
                            __ZN3acv6vision10extraction15extractContoursENS_8graphics10ImageViewTIhEERNSt3__16vectorINS6_INS0_7feature5PixelIiEENS5_9allocatorIS9_EEEENSA_ISC_EEEEi,
                            __ZN3acv6vision6marker14MarkerDetector13detectMarkersENS_8graphics10ImageViewTIKhEES6_RKNSt3__13mapIiNS1_15ReferenceMarkerENS7_4lessIiEENS7_9allocatorINS7_4pairIKiS9_EEEEEERKNS_4math7ICameraERKNS_8geometry4RectIiEERNS8_IiNS1_14DetectedMarkerESB_NSC_INSD_ISE_ST_EEEEEE,
                            __ZN3acv6vision6marker14MarkerDetector13detectMarkersERKNS_4math7ICameraENS_8graphics10ImageViewTIKhEERKNS_8geometry4RectIiEE,
                            __ZN3acv6vision6marker14MarkerDetector15detectBCHMarkerENS_8graphics10ImageViewTIKhEERKN3cva6MatrixIfLj3ELj3EEERKNS_4math7ICameraERi,
                            __ZN3acv6vision6marker14MarkerDetector16endVisualizationEv,
                            __ZN3acv6vision6marker14MarkerDetector18clearVisualizationEv,
                            __ZN3acv6vision6marker14MarkerDetector18computeMarkerPosesERKNS_4math12ICameraModelERNSt3__13mapIiNS1_14DetectedMarkerENS7_4lessIiEENS7_9allocatorINS7_4pairIKiS9_EEEEEE,
                            __ZN3acv6vision6marker14MarkerDetector19computeMarkerArea2DERKNS1_14DetectedMarkerE,
                            __ZN3acv6vision6marker14MarkerDetector21computeUnitHomographyERKNSt3__15arrayINS0_7feature5PixelIfEELm4EEEfRN3cva6MatrixIfLj3ELj3EEE,
                            __ZN3acv6vision6marker14MarkerDetector23computeRegionOfInterestEiiRKNS_4math7ICameraERKN3cva6MatrixIfLj4ELj4EEERNS_8geometry4RectIiEE,
                            __ZN3acv6vision6marker14MarkerDetector23hasBlackAndWhiteBordersERKNS_8graphics10ImageViewTIKhEERKN3cva6MatrixIfLj3ELj3EEERKNS_4math7ICameraE,
                            __ZN3acv6vision6marker14MarkerDetector26detectMarkerAndSaveCornersERKNSt3__15arrayINS0_7feature5PixelIfEELm4EEERKNS3_6vectorINS6_IiEENS3_9allocatorISC_EEEEPKiRKNS_8graphics10ImageViewTIKhEESP_RKNS3_3mapIiNS1_15ReferenceMarkerENS3_4lessIiEENSD_INS3_4pairISI_SR_EEEEEERKNS_4math7ICameraERNSQ_IiNS1_14DetectedMarkerEST_NSD_INSU_ISI_S14_EEEEEE,
                            __ZN3acv6vision6marker14MarkerDetector7addQuadERKNSt3__15arrayINS0_7feature5PixelIfEELm4EEEiiiff,
                            __ZN3acv6vision6marker14MarkerDetectorC1ENS2_8SettingsERKNSt3__13mapIiNS1_15ReferenceMarkerENS4_4lessIiEENS4_9allocatorINS4_4pairIKiS6_EEEEEE,
                            __ZN3acv6vision6marker14MarkerDetectorC2ENS2_8SettingsERKNSt3__13mapIiNS1_15ReferenceMarkerENS4_4lessIiEENS4_9allocatorINS4_4pairIKiS6_EEEEEE,
                            __ZN3acv6vision6marker15ReferenceMarker4initEv,
                            __ZN3acv6vision6marker15ReferenceMarkerC1ERKS2_,
                            __ZN3acv6vision6marker15ReferenceMarkerC1Eff,
                            __ZN3acv6vision6marker15ReferenceMarkerC1Ev,
                            __ZN3acv6vision6marker15ReferenceMarkerC2ERKS2_,
                            __ZN3acv6vision6marker15ReferenceMarkerC2Eff,
                            __ZN3acv6vision6marker15ReferenceMarkerC2Ev,
                            __ZN3acv6vision6marker15visualizeImagesENS_8graphics10ImageViewTIKhEES5_RKNS_8geometry4RectIiEE,
                            __ZN3acv6vision6marker16visageDrawQuadULERKNSt3__15arrayINS0_7feature5PixelIfEELm4EEEiiiffRNS2_6vectorIfNS2_9allocatorIfEEEERNSA_IhNSB_IhEEEE,
                            __ZN3acv6vision6marker16visualizeMarkersERKNSt3__13mapIiNS1_14DetectedMarkerENS2_4lessIiEENS2_9allocatorINS2_4pairIKiS4_EEEEEERKNS_4math7ICameraERKNS_8geometry4RectIiEEiiiRNS2_6vectorIfNS7_IfEEEERNSO_IhNS7_IhEEEE,
                            __ZN3acv6vision6marker18MarkerDetectorImpl25refineDetectedMarkerEdgesENS0_7feature23ELineRefinementApproachENS_8graphics10ImageViewTIKhEERKNS_4math7ICameraERNSt3__13mapIiNS1_14DetectedMarkerENSD_4lessIiEENSD_9allocatorINSD_4pairIKiSF_EEEEEEPNSD_6vectorIfNSI_IfEEEE,
                            __ZN3acv6vision6marker18visualizeQuadOrderERKNSt3__112basic_stringIcNS2_11char_traitsIcEENS2_9allocatorIcEEEEiRKNS2_5arrayINS0_7feature5PixelIfEELm4EEERKNS_8geometry4RectIiEERNS2_6vectorIfNS6_IfEEEERNSN_IhNS6_IhEEEE,
                            __ZN3acv6vision6marker8BCHCoder11formSyndromERKNSt3__16bitsetILm36EEEPs,
                            __ZN3acv6vision6marker8BCHCoder12calcualteELPEPKsPsPt,
                            __ZN3acv6vision6marker8BCHCoder12findElpRootsEPstPt,
                            __ZN3acv6vision6marker8BCHCoder15correctCodeWordERNSt3__16bitsetILm36EEE,
                            __ZN3acv6vision6marker8BCHCoder15correctCodeWordERNSt3__16bitsetILm36EEERm,
                            __ZN3acv6vision6marker8BCHCoder16markerIDfromCodeERKNSt3__16bitsetILm36EEEPiRi,
                            __ZN3acv6vision6marker8BCHCoder19m_indexToPolynomialE,
                            __ZN3acv6vision6marker8BCHCoder19m_polynomialToIndexE,
                            __ZN3acv6vision6marker8BCHCoder5flipXEPii,
                            __ZN3acv6vision6marker8BCHCoder9transposeEPii,
                            __ZN3acv6vision6marker8BCHCoderC1Ev,
                            __ZN3acv6vision6marker8BCHCoderC2Ev,
                            __ZN3acv6vision6marker8BCHCoderD0Ev,
                            __ZN3acv6vision6marker8BCHCoderD1Ev,
                            __ZN3acv6vision6marker8BCHCoderD2Ev,
                            __ZN3acv6vision7feature16visualizeNormalsEPKfS3_fiPNSt3__16vectorIfNS4_9allocatorIfEEEE,
                            __ZN3acv6vision7feature21visualizeSamplePointsEPKfiPNSt3__16vectorIfNS4_9allocatorIfEEEE,
                            __ZN3acv6vision7feature23refineLineUsingGradientENS_8graphics10ImageViewTIKhEERKNS_4math7ICameraEPKfPfNS1_23ELineRefinementApproachEfPNSt3__16vectorIfNSE_9allocatorIfEEEE,
                            __ZN3acv6vision7feature28getSubpixelEdgePointOnNormalEPA3_fNS1_23ELineRefinementApproachERNS1_5PixelIfEE,
                            __ZN3acv6vision7feature32refineQuadrilateralUsingGradientERKNS_8graphics10ImageViewTIKhEERKNS_4math7ICameraENS1_23ELineRefinementApproachERNSt3__15arrayINS1_5PixelIfEELm4EEERKNSD_6vectorINSF_IiEENSD_9allocatorISK_EEEEPKifPNSJ_IfNSL_IfEEEE,
                            __ZN3acv8graphics10FreeBufferclEPv,
                            __ZN3acv8graphics10isPowerOf2Ei,
                            __ZN3acv8graphics10meanFilterENS0_10ImageViewTIKhEENS1_IhEEi,
                            __ZN3acv8graphics11getPixel_F1ERKNS0_10ImageViewTIKfEEiiRf,
                            __ZN3acv8graphics11getPixel_F1ERKNS0_10ImageViewTIKhEEiiRf,
                            __ZN3acv8graphics11getPixel_F2ERKNS0_10ImageViewTIKfEEiiRfS6_,
                            __ZN3acv8graphics11getPixel_F2ERKNS0_10ImageViewTIKhEEiiRfS6_,
                            __ZN3acv8graphics11getPixel_F3ERKNS0_10ImageViewTIKfEEiiRfS6_S6_,
                            __ZN3acv8graphics11getPixel_F3ERKNS0_10ImageViewTIKhEEiiRfS6_S6_,
                            __ZN3acv8graphics11getPixel_S1ERKNS0_10ImageViewTIKhEEiiRt,
                            __ZN3acv8graphics11getPixel_S1ERKNS0_10ImageViewTIKtEEiiRt,
                            __ZN3acv8graphics11isPackedYUVENS0_13ECOLOR_FORMATE,
                            __ZN3acv8graphics11isPlanarYUVENS0_13ECOLOR_FORMATE,
                            __ZN3acv8graphics11setPixel_F1ERKNS0_10ImageViewTIfEEiif,
                            __ZN3acv8graphics11setPixel_F1ERKNS0_10ImageViewTIhEEiif,
                            __ZN3acv8graphics11setPixel_F2ERKNS0_10ImageViewTIfEEiiff,
                            __ZN3acv8graphics11setPixel_F2ERKNS0_10ImageViewTIhEEiiff,
                            __ZN3acv8graphics11setPixel_F3ERKNS0_10ImageViewTIfEEiifff,
                            __ZN3acv8graphics11setPixel_F3ERKNS0_10ImageViewTIhEEiifff,
                            __ZN3acv8graphics11setPixel_S1ERKNS0_10ImageViewTIhEEiit,
                            __ZN3acv8graphics11setPixel_S1ERKNS0_10ImageViewTItEEiit,
                            __ZN3acv8graphics12ConvertImage13computeResultEv,
                            __ZN3acv8graphics12ConvertImage6createERKNS_18ComputationHistoryERKNS0_10ImageViewTIKhEENS0_13ECOLOR_FORMATE,
                            __ZN3acv8graphics12ConvertImage9useResultERKNS_20IHashableComputationE,
                            __ZN3acv8graphics12ConvertImageC1ERKNS_18ComputationHistoryERKNS0_10ImageViewTIKhEENS0_13ECOLOR_FORMATE,
                            __ZN3acv8graphics12ConvertImageC2ERKNS_18ComputationHistoryERKNS0_10ImageViewTIKhEENS0_13ECOLOR_FORMATE,
                            __ZN3acv8graphics12ConvertImageD0Ev,
                            __ZN3acv8graphics12ConvertImageD1Ev,
                            __ZN3acv8graphics12ConvertImageD2Ev,
                            __ZN3acv8graphics12ImagePyramid11getPyrImageEj,
                            __ZN3acv8graphics12ImagePyramid12buildPyramidENS0_10ImageViewTIKhEE,
                            __ZN3acv8graphics12ImagePyramid6resizeEiiNS0_13ECOLOR_FORMATE,
                            __ZN3acv8graphics12ImagePyramidC1ERKS1_,
                            __ZN3acv8graphics12ImagePyramidC1EiiNS0_13ECOLOR_FORMATEifNS1_11FILTER_MODEE,
                            __ZN3acv8graphics12ImagePyramidC2ERKS1_,
                            __ZN3acv8graphics12ImagePyramidC2EiiNS0_13ECOLOR_FORMATEifNS1_11FILTER_MODEE,
                            __ZN3acv8graphics12convertImageENS0_10ImageViewTIKhEENS0_13ECOLOR_FORMATE,
                            __ZN3acv8graphics12convertImageENS0_10ImageViewTIKhEENS1_IhEE,
                            __ZN3acv8graphics12convertImageERKNS_18ComputationHistoryENS0_10ImageViewTIKhEENS0_13ECOLOR_FORMATE,
                            __ZN3acv8graphics12getPixel_UC1ERKNS0_10ImageViewTIKhEEffRf,
                            __ZN3acv8graphics12getPixel_UC3ERKNS0_10ImageViewTIKhEEiiRhS6_S6_,
                            __ZN3acv8graphics12getPixel_UC4ERKNS0_10ImageViewTIKhEEiiRhS6_S6_S6_,
                            __ZN3acv8graphics12setPixel_UC3ERKNS0_10ImageViewTIhEEiihhh,
                            __ZN3acv8graphics12setPixel_UC4ERKNS0_10ImageViewTIhEEiihhhh,
                            __ZN3acv8graphics12warpBilinearENS0_10ImageViewTIKhEENS1_IhEERKN3cva6MatrixIfLj3ELj3EEEh,
                            __ZN3acv8graphics12warpBilinearENS0_10ImageViewTIKhEENS1_IhEES4_RKN3cva6MatrixIfLj3ELj3EEE,
                            __ZN3acv8graphics12warpBilinearENS0_10ImageViewTIKhEERN3cva6MatrixIfLj0ELj0EEERNS5_IiLj0ELj0EEERKNS5_IfLj3ELj3EEE,
                            __ZN3acv8graphics12whitebalanceENS0_10ImageViewTIKhEENS1_IhEE,
                            __ZN3acv8graphics13bytesPerPixelENS0_13ECOLOR_FORMATE,
                            __ZN3acv8graphics13bytesPerValueERKNS0_13ECOLOR_FORMATE,
                            __ZN3acv8graphics13bytesPerValueERKNS0_17EIMAGE_VALUE_TYPEE,
                            __ZN3acv8graphics13copyIntoImageEP10__CVBuffer,
                            __ZN3acv8graphics13copyIntoImageEP7CGImage,
                            __ZN3acv8graphics13isInterleavedENS0_13ECOLOR_FORMATE,
                            __ZN3acv8graphics13wrapIntoImageEP10__CVBuffer,
                            __ZN3acv8graphics14AllocateBufferclEi,
                            __ZN3acv8graphics14flipVerticallyENS0_10ImageViewTIhEE,
                            __ZN3acv8graphics14flipVerticallyEPhiiii,
                            __ZN3acv8graphics14getImageFormatEP7CGImage,
                            __ZN3acv8graphics14getImageFormatEiNS0_17EIMAGE_VALUE_TYPEE,
                            __ZN3acv8graphics14mapPlaneAsGrayERKNS0_10ImageViewTIKhEEj,
                            __ZN3acv8graphics14mapPlaneAsGrayERKNS0_10ImageViewTIhEEj,
                            __ZN3acv8graphics14mapPlaneAsGrayERKNS0_6ImageTIhEEj,
                            __ZN3acv8graphics14minimizeStrideERKNS0_10ImageViewTIKhEE,
                            __ZN3acv8graphics14minimizeStrideERKNS0_10ImageViewTIhEE,
                            __ZN3acv8graphics15isSemiplanarYUVENS0_13ECOLOR_FORMATE,
                            __ZN3acv8graphics15isSingleChannelENS0_13ECOLOR_FORMATE,
                            __ZN3acv8graphics16downScaleImage_2ENS0_10ImageViewTIKhEENS1_IhEE,
                            __ZN3acv8graphics16downScaleImage_NENS0_10ImageViewTIKhEENS1_IhEEi,
                            __ZN3acv8graphics16downScaleImage_NEPKhiiiPhiiiii,
                            __ZN3acv8graphics16filterBinaryEdgeENS0_10ImageViewTIKhEENS1_IhEE,
                            __ZN3acv8graphics16flipHorizontallyENS0_10ImageViewTIhEE,
                            __ZN3acv8graphics16flipHorizontallyEPhiiii,
                            __ZN3acv8graphics17adaptiveThresholdENS0_10ImageViewTIKhEENS1_IhEES4_S4_iii,
                            __ZN3acv8graphics17convertFilterModeENS0_12ImagePyramid11FILTER_MODEEf,
                            __ZN3acv8graphics17getPixel_UC1_safeERKNS0_10ImageViewTIKhEEffRf,
                            __ZN3acv8graphics17laplacianFilterU8ENS0_10ImageViewTIKhEENS1_IhEE,
                            __ZN3acv8graphics18convertImageFormatEj,
                            __ZN3acv8graphics18downscaleYUVToGrayENS0_10ImageViewTIKhEENS1_IhEEib,
                            __ZN3acv8graphics18downscaleYUVToGrayEPKhNS0_13ECOLOR_FORMATEiPhS3_iiijjb,
                            __ZN3acv8graphics18getPixel_packedYUVERKNS0_10ImageViewTIKhEEiiRhS6_S6_,
                            __ZN3acv8graphics18getPixel_planarYUVERKNS0_10ImageViewTIKhEEiiRhS6_S6_,
                            __ZN3acv8graphics18isCompatibleFormatENS0_17EIMAGE_VALUE_TYPEENS0_13ECOLOR_FORMATE,
                            __ZN3acv8graphics18setPixel_packedYUVERKNS0_10ImageViewTIhEEiihhh,
                            __ZN3acv8graphics18setPixel_planarYUVERKNS0_10ImageViewTIhEEiihhh,
                            __ZN3acv8graphics19downscaleRGB8ToGrayENS0_10ImageViewTIKhEENS1_IhEEi,
                            __ZN3acv8graphics19downscaleYUY2ToGrayENS0_10ImageViewTIKhEENS1_IhEEi,
                            __ZN3acv8graphics19integralSquareImageENS0_10ImageViewTIKhEENS1_IhEE,
                            __ZN3acv8graphics19wrapIntoVisionImageENS0_10ImageViewTIKhEE,
                            __ZN3acv8graphics20ImageBufferStructure16checkConsistencyERKNS0_17EIMAGE_VALUE_TYPEERKS1_,
                            __ZN3acv8graphics20ImageBufferStructure16checkConsistencyERKNS0_17EIMAGE_VALUE_TYPEEiiiRKNS0_13ECOLOR_FORMATEi,
                            __ZN3acv8graphics20ImageBufferStructure17computeBufferSizeEiiRKNS0_13ECOLOR_FORMATEib,
                            __ZN3acv8graphics20ImageBufferStructure20computeDefaultStrideEiRKNS0_13ECOLOR_FORMATE,
                            __ZN3acv8graphics20ImageBufferStructure20computeMinimalStrideEiRKNS0_13ECOLOR_FORMATE,
                            __ZN3acv8graphics20gradientMagnitudeSADENS0_10ImageViewTIKhEES3_NS1_IhEE,
                            __ZN3acv8graphics21flipHorizontally_YUY2EPhiii,
                            __ZN3acv8graphics21wrapIntoCVPixelBufferENS0_10ImageViewTIKhEEb,
                            __ZN3acv8graphics21wrapIntoVisionImageU8ENS0_10ImageViewTIKhEE,
                            __ZN3acv8graphics22downScaleImage_2_DepthENS0_10ImageViewTIKhEENS1_IhEE,
                            __ZN3acv8graphics22downScaleImage_2_DepthEPKsiiiPsiii,
                            __ZN3acv8graphics22subSample2DLineSegmentEPKfS2_iPf,
                            __ZN3acv8graphics22subSample2DLineSegmentEPKfiPf,
                            __ZN3acv8graphics22wrapIntoVisionImageF32ENS0_10ImageViewTIKhEE,
                            __ZN3acv8graphics22wrapIntoVisionImageS16ENS0_10ImageViewTIKhEE,
                            __ZN3acv8graphics23convertImageFormatToVACENS0_13ECOLOR_FORMATE,
                            __ZN3acv8graphics23getSubPxIntensityValuesEPKfiNS0_10ImageViewTIKhEEPf,
                            __ZN3acv8graphics23interp2NearestNeighbourEPfPhiiiPKfiiiS4_,
                            __ZN3acv8graphics23interp2NearestNeighbourEPhiiiPKhiiiPKfh,
                            __ZN3acv8graphics24wrapIntoVisionImageRGBX8ENS0_10ImageViewTIKhEE,
                            __ZN3acv8graphics26convertImageFormatToOSTypeENS0_13ECOLOR_FORMATE,
                            __ZN3acv8graphics26convertStringToColorFormatERKNSt3__112basic_stringIcNS1_11char_traitsIcEENS1_9allocatorIcEEEE,
                            __ZN3acv8graphics27subSample2DParametrizedLineEPKfiPf,
                            __ZN3acv8graphics28CreateCGImageWrapperForImageERKNS0_10ImageViewTIKhEE,
                            __ZN3acv8graphics28CreateCGImageWrapperForImageERKNS0_10ImageViewTIhEE,
                            __ZN3acv8graphics29createWarpedImageOrthographicERKN3cva6MatrixIfLj3ELj1EEENS0_10ImageViewTIKhEERNS2_IfLj3ELj3EEE,
                            __ZN3acv8graphics29stdAdaptiveWindowBinarizationENS0_10ImageViewTIKhEENS1_IhEES4_S4_bNS0_14adaptWinBiParaERKNSt3__16vectorIiNS6_9allocatorIiEEEE,
                            __ZN3acv8graphics30copyIntoIOSurfaceCVPixelBufferENS0_10ImageViewTIhEEb,
                            __ZN3acv8graphics30copyIntoIOSurfaceCVPixelBufferEP10__CVBufferb,
                            __ZN3acv8graphics30downscaleImage_NearestNeighborENS0_10ImageViewTIKhEENS1_IhEEi,
                            __ZN3acv8graphics30downscaleImage_NearestNeighborEPKhiiiPhiiiii,
                            __ZN3acv8graphics3addENS0_10ImageViewTIKhEENS1_IhEE,
                            __ZN3acv8graphics3addENS0_10ImageViewTIKhEENS1_IhEERKf,
                            __ZN3acv8graphics3sumENS0_10ImageViewTIKhEE,
                            __ZN3acv8graphics4copyENS0_10ImageViewTIKhEENS1_IhEE,
                            __ZN3acv8graphics4copyEiiNS0_13ECOLOR_FORMATEPKhiPhiii,
                            __ZN3acv8graphics4cropENS0_10ImageViewTIKhEENS1_IhEERKNS_8geometry4RectIiEE,
                            __ZN3acv8graphics4meanENS0_10ImageViewTIKhEE,
                            __ZN3acv8graphics4meanENS0_10ImageViewTIKhEERNSt3__16vectorIfNS4_9allocatorIfEEEE,
                            __ZN3acv8graphics5isYUVENS0_13ECOLOR_FORMATE,
                            __ZN3acv8graphics5shiftENS0_10ImageViewTIKhEEii,
                            __ZN3acv8graphics5splitENS0_10ImageViewTIKhEE,
                            __ZN3acv8graphics6equalsERKNS0_12ImagePyramidES3_,
                            __ZN3acv8graphics6invertENS0_10ImageViewTIhEE,
                            __ZN3acv8graphics6rotateENS0_10ImageViewTIKhEENS0_9EROTATIONE,
                            __ZN3acv8graphics6rotateENS0_10ImageViewTIKhEENS1_IhEENS0_9EROTATIONE,
                            __ZN3acv8graphics8calcHistENS0_10ImageViewTIKhEEi,
                            __ZN3acv8graphics8integralENS0_10ImageViewTIKhEENS1_IhEE,
                            __ZN3acv8graphics8multiplyENS0_10ImageViewTIKhEENS1_IhEERKNSt3__16vectorIfNS5_9allocatorIfEEEE,
                            __ZN3acv8graphics8multiplyENS0_10ImageViewTIKhEENS1_IhEEf,
                            __ZN3acv8graphics9downscaleENS0_10ImageViewTIKhEENS1_IhEE,
                            __ZN3acv8graphics9gradientXENS0_10ImageViewTIKhEENS1_IhEE,
                            __ZN3acv8graphics9gradientYENS0_10ImageViewTIKhEENS1_IhEE,
                            __ZN3acv8graphics9nChannelsENS0_13ECOLOR_FORMATE,
                            __ZN3acv8graphics9thresholdENS0_10ImageViewTIKhEENS1_IhEEh,
                            __ZN3acv8graphics9transposeENS0_10ImageViewTIKhEENS1_IhEE,
                            __ZN3acv8graphics9transposeEPKhiiiPhiiii,
                            __ZN3acv9algorithm6Random10globalSeedEv,
                            __ZN3acv9algorithm6Random19seedFromCurrentTimeEv,
                            __ZN3vac10checkImageEPKNS_10ImageRGBX8Ei,
                            __ZN3vac10checkImageEPKNS_5ImageEi,
                            __ZN3vac10checkImageEPKNS_7ImageU8Ei,
                            __ZN3vac10checkImageEPKNS_8ImageF32Ei,
                            __ZN3vac10checkImageEPKNS_8ImageS16Ei,
                            __ZN3vac10checkImageEPKNS_8ImageS32Ei,
                            __ZN3vac10freeBufferEPv,
                            __ZN3vac10scaleImageEPKNS_7ImageU8ES2_f,
                            __ZN3vac10scaleImageEPKNS_8ImageS16ES2_f,
                            __ZN3vac11createImageEPNS_10ImageRGBX8Eiib,
                            __ZN3vac11createImageEPNS_5ImageEiiNS_13EIMAGE_FORMATEbiPv,
                            __ZN3vac11createImageEPNS_7ImageU8Eiib,
                            __ZN3vac11createImageEPNS_8ImageF32Eiib,
                            __ZN3vac11createImageEPNS_8ImageS16Eiib,
                            __ZN3vac11createImageEPNS_8ImageS32Eiib,
                            __ZN3vac11narrowImageEPNS_7ImageU8EPKNS_8ImageS16Eii,
                            __ZN3vac12convertImageEPNS_5ImageEPKS0_,
                            __ZN3vac12destroyImageEPNS_10ImageRGBX8E,
                            __ZN3vac12destroyImageEPNS_5ImageE,
                            __ZN3vac12destroyImageEPNS_7ImageU8E,
                            __ZN3vac12destroyImageEPNS_8ImageF32E,
                            __ZN3vac12destroyImageEPNS_8ImageS16E,
                            __ZN3vac12destroyImageEPNS_8ImageS32E,
                            __ZN3vac12filterBox3x3EPNS_10ImageRGBX8EPKS0_Phi,
                            __ZN3vac12filterBox3x3EPNS_7ImageU8EPKS0_Phi,
                            __ZN3vac12filterBox5x5EPNS_7ImageU8EPKS0_Phi,
                            __ZN3vac13isConvertibleENS_13EIMAGE_FORMATES0_,
                            __ZN3vac14allocateBufferEi,
                            __ZN3vac14filterErode3x3EPNS_7ImageU8EPKS0_,
                            __ZN3vac14integrateImageEPNS_8ImageF32EPKNS_7ImageU8E,
                            __ZN3vac14integrateImageEPNS_8ImageS32EPKNS_7ImageU8E,
                            __ZN3vac15filterDilate3x3EPNS_7ImageU8EPKS0_,
                            __ZN3vac15filterMedian3x3EPNS_7ImageU8EPKS0_,
                            __ZN3vac15filterMedian3x3EPNS_8ImageS16EPKS0_,
                            __ZN3vac15freeImageBufferEPh,
                            __ZN3vac16addImageHeadTailEPhii,
                            __ZN3vac16filterBinaryEdgeEPNS_7ImageU8EPKS0_,
                            __ZN3vac16filterLaplace3x3EPNS_8ImageS16EPKNS_7ImageU8EPhi,
                            __ZN3vac16getBytesPerPixelENS_13EIMAGE_FORMATE,
                            __ZN3vac16removeBufferHeadEPv,
                            __ZN3vac16scaleImageDown15EPKNS_7ImageU8ES2_,
                            __ZN3vac16scaleImageDown15EPKNS_8ImageS16ES2_,
                            __ZN3vac16scaleImageDown20EPKNS_7ImageU8ES2_,
                            __ZN3vac16scaleImageDown20EPKNS_8ImageS16ES2_,
                            __ZN3vac17addBufferHeadTailEPvi,
                            __ZN3vac17buildImagePyramidEPNS_12ImagePyramidEPKNS_7ImageU8EPhi,
                            __ZN3vac17checkImagePyramidEPKNS_12ImagePyramidE,
                            __ZN3vac18createImagePyramidEPNS_12ImagePyramidEPNS_7ImageU8Eif,
                            __ZN3vac18createImagePyramidEPNS_12ImagePyramidEiiifNS_13EIMAGE_FILTEREbbPNS_7ImageU8EPhi,
                            __ZN3vac19allocateImageBufferEPiiiNS_13EIMAGE_FORMATE,
                            __ZN3vac19calcImageBufferSizeENS_13EIMAGE_FORMATEii,
                            __ZN3vac19destroyImagePyramidEPNS_12ImagePyramidEb,
                            __ZN3vac19filterSobelXClampedEPNS_7ImageU8EPKS0_i,
                            __ZN3vac20integrateSquareImageEPNS_8ImageF32EPKNS_7ImageU8E,
                            __ZN3vac21convertRGBA8FromRGBX8EPNS_5ImageEPKS0_,
                            __ZN3vac21getScratchSizePyramidEPNS_12ImagePyramidE,
                            __ZN3vac22checkImageCanaryValuesEPKNS_5ImageE,
                            __ZN3vac22checkImageCanaryValuesEPKNS_7ImageU8E,
                            __ZN3vac22checkImageCanaryValuesEPKNS_8ImageS16E,
                            __ZN3vac23getScratchSizeFilter3x3EPNS_10ImageRGBX8E,
                            __ZN3vac23getScratchSizeFilter3x3EPNS_7ImageU8E,
                            __ZN3vac25checkImgBufferWidthHeightEiiiPv,
                            __ZN3vac26checkBufferCanaryValueHeadEPv,
                            __ZN3vac26filterBoxFromIntegralImageEPNS_7ImageU8EPKNS_8ImageF32Eii,
                            __ZN3vac26filterBoxFromIntegralImageEPNS_7ImageU8EPKNS_8ImageS32Eii,
                            __ZN3vac26filterSumFromIntegralImageEPNS_8ImageF32EPKS0_ii,
                            __ZN3vac26filterSumFromIntegralImageEPNS_8ImageS32EPKS0_ii,
                            __ZN3vac29extractGRAY8ScaleFlipFromNV12EPNS_5ImageEPKS0_ib,
                            __ZN3vac6copy2dEPviPKviii,
                            __ZN3vac9copyImageEPNS_10ImageRGBX8EPKS0_,
                            __ZN3vac9copyImageEPNS_5ImageEPKS0_,
                            __ZN3vac9copyImageEPNS_7ImageU8EPKS0_,
                            __ZN3vac9copyImageEPNS_8ImageF32EPKS0_,
                            __ZN3vac9copyImageEPNS_8ImageS16EPKS0_,
                            __ZNK3acv18ComputationHistory19findOrComputeResultERNS_20IHashableComputationE,
                            __ZNK3acv18ComputationHistory4implEv,
                            __ZNK3acv18ComputationHistory7historyEv,
                            __ZNK3acv18ComputationHistoryeqERKS0_,
                            __ZNK3acv18ComputationHistoryneERKS0_,
                            __ZNK3acv20IHashableComputation9selfConstEv,
                            __ZNK3acv22WeakComputationHistory19findOrComputeResultERNS_20IHashableComputationE,
                            __ZNK3acv23IComputationHistoryImpl19findOrComputeResultENSt3__110shared_ptrINS_20IHashableComputationEEE,
                            __ZNK3acv23IComputationHistoryImpl19findOrComputeResultERNS_20IHashableComputationE,
                            __ZNK3acv23IComputationHistoryImpl4implEv,
                            __ZNK3acv23IComputationHistoryImpl7historyEv,
                            __ZNK3acv23IComputationHistoryImpl9selfConstEv,
                            __ZNK3acv23IWeakComputationHistory19findOrComputeResultENSt3__110shared_ptrINS_20IHashableComputationEEE,
                            __ZNK3acv4math12ICameraModel35directionVectorFromPixelCoordinatesERKfS3_RfS4_S4_,
                            __ZNK3acv4math12ICameraModel41normalizedCoordinatesFromPixelCoordinatesERKfS3_RfS4_,
                            __ZNK3acv4math12ICameraModel41pixelCoordinatesFromNormalizedCoordinatesERKfS3_RfS4_,
                            __ZNK3acv4math13PinholeCamera12isPixelValidERKN3cva6MatrixIfLj2ELj1EEEf,
                            __ZNK3acv4math13PinholeCamera24adjustPinholeCameraToROIERKNS_8geometry4RectIiEE,
                            __ZNK3acv4math13PinholeCamera45validPixelCoordinatesFrom3DPointInCameraFrameERKN3cva6MatrixIfLj3ELj1EEERNS3_IfLj2ELj1EEE,
                            __ZNK3acv4math13PinholeCamera56validPixelCoordinatesAndJacobianFrom3DPointInCameraFrameERKN3cva6MatrixIfLj3ELj1EEERNS3_IfLj2ELj1EEERNS3_IfLj2ELj3EEE,
                            __ZNK3acv4math13PinholeCamera6equalsERKNS0_7ICameraERKf,
                            __ZNK3acv4math13PinholeCameraeqERKS1_,
                            __ZNK3acv4math18PinholeCameraModel11focalLengthEv,
                            __ZNK3acv4math18PinholeCameraModel13getParametersEv,
                            __ZNK3acv4math18PinholeCameraModel23clonePinholeCameraModelEv,
                            __ZNK3acv4math18PinholeCameraModel27pixelCoordinatesFrom3DPointERKN3cva6MatrixIfLj3ELj1EEERNS3_IfLj2ELj1EEE,
                            __ZNK3acv4math18PinholeCameraModel35directionVectorFromPixelCoordinatesERKN3cva6MatrixIfLj2ELj1EEERNS3_IfLj3ELj1EEE,
                            __ZNK3acv4math18PinholeCameraModel35directionVectorFromPixelCoordinatesERKfS3_RfS4_S4_,
                            __ZNK3acv4math18PinholeCameraModel38pixelCoordinatesAndJacobianFrom3DPointERKN3cva6MatrixIfLj3ELj1EEERNS3_IfLj2ELj1EEERNS3_IfLj2ELj3EEE,
                            __ZNK3acv4math18PinholeCameraModel41normalizedCoordinatesFromPixelCoordinatesERKN3cva6MatrixIfLj2ELj1EEERS4_,
                            __ZNK3acv4math18PinholeCameraModel41normalizedCoordinatesFromPixelCoordinatesERKfS3_RfS4_,
                            __ZNK3acv4math18PinholeCameraModel41pixelCoordinatesFromNormalizedCoordinatesERKN3cva6MatrixIfLj2ELj1EEERS4_,
                            __ZNK3acv4math18PinholeCameraModel41pixelCoordinatesFromNormalizedCoordinatesERKfS3_RfS4_,
                            __ZNK3acv4math18PinholeCameraModel4typeEv,
                            __ZNK3acv4math18PinholeCameraModel5cloneEv,
                            __ZNK3acv4math18PinholeCameraModel6equalsERKNS0_12ICameraModelERKf,
                            __ZNK3acv4math18PinholeCameraModeleqERKS1_,
                            __ZNK3acv4math7ICamera12isPixelValidERKfS3_f,
                            __ZNK3acv4math7ICamera4typeEv,
                            __ZNK3acv6vision10algorithms16FaceTrackingData10nLandmarksEv,
                            __ZNK3acv6vision10algorithms16FaceTrackingData17filteredLandmarksERKNSt3__16vectorIiNS3_9allocatorIiEEEE,
                            __ZNK3acv6vision10algorithms17HoughLineDetector19convertToHoughSpaceERKN3cva6MatrixIfLj2ELj1EEES7_,
                            __ZNK3acv6vision10algorithms17HoughLineDetector25countInliersWithThresholdERKNSt3__16vectorIN3cva6MatrixIfLj2ELj1EEENS3_9allocatorIS7_EEEERKNS3_4pairIffEE,
                            __ZNK3acv6vision10algorithms17HoughLineDetector27countInliersWithUncertaintyERKNSt3__16vectorIN3cva6MatrixIfLj2ELj1EEENS3_9allocatorIS7_EEEERKNS3_4pairIffEERKNS4_INS6_IfLj2ELj2EEENS8_ISH_EEEE,
                            __ZNK3acv6vision10algorithms17HoughLineDetector29computeHoughMeanAndCovarianceERKN3cva6MatrixIfLj2ELj1EEES7_RKNS4_IfLj2ELj2EEESA_RS5_SB_,
                            __ZNK3acv6vision10algorithms19PrecomputedFaceData13nCoefficientsEv,
                            __ZNK3acv6vision10algorithms19PrecomputedFaceData17getValidSampleIDsEi,
                            __ZNK3acv6vision10algorithms19PrecomputedFaceData17getValidSampleIDsEv,
                            __ZNK3acv6vision10algorithms19PrecomputedFaceData6getRTFERKNSt3__16vectorIiNS3_9allocatorIiEEEE,
                            __ZNK3acv6vision10algorithms19PrecomputedFaceData6getRTFEi,
                            __ZNK3acv6vision10algorithms19PrecomputedFaceData8nSamplesEv,
                            __ZNK3acv6vision10algorithms19TemporalPlanarModel18getOnOffTotalCountEv,
                            __ZNK3acv6vision10algorithms19TemporalPlanarModel20getAreaBasedOnExtentEv,
                            __ZNK3acv6vision10algorithms19TemporalPlanarModel21hasDefinedUncertaintyEv,
                            __ZNK3acv6vision10algorithms19TemporalPlanarModel22AxisAlignedBoundingBoxIfE12getTrianglesERNSt3__15arrayIN3cva6MatrixIfLj2ELj1EEELm3EEESB_RKNS8_IfLj3ELj2EEERKS9_,
                            __ZNK3acv6vision10algorithms19TemporalPlanarModel29computeExtentAreaToImageRatioERKNS_4math13PinholeCameraERKN3cva15SE3GroupStorageIfNS7_6MatrixIfLj4ELj4EEEEE,
                            __ZNK3acv6vision10algorithms19TemporalPlanarModel36transformPointInPlaneExtentToWorldRFERKN3cva6MatrixIfLj2ELj1EEE,
                            __ZNK3acv6vision10algorithms19TemporalPlanarModel36transformPointInWorldToPlaneExtentRFERKN3cva6MatrixIfLj3ELj1EEE,
                            __ZNK3acv6vision10algorithms19TemporalPlanarModel8QuadTree15isFullyOccupiedEi,
                            __ZNK3acv6vision10algorithms19TemporalPlanarModel8QuadTree16getBoundingBoxesERNSt3__16vectorIiNS4_9allocatorIiEEEES9_b,
                            __ZNK3acv6vision10algorithms19TemporalPlanarModel8QuadTree17getCellsRecursiveERNSt3__16vectorIiNS4_9allocatorIiEEEEii,
                            __ZNK3acv6vision10algorithms19TemporalPlanarModel8QuadTree21getNumLeafsAboveCountEi,
                            __ZNK3acv6vision10algorithms19TemporalPlanarModel8QuadTree25getBoundingBoxesRecursiveERNSt3__16vectorINS2_22AxisAlignedBoundingBoxIfEENS4_9allocatorIS7_EEEEiRNS5_IiNS8_IiEEEESE_b,
                            __ZNK3acv6vision10algorithms19TemporalPlanarModel8QuadTree27getTightBoundsFromLeafCellsERNSt3__16vectorIiNS4_9allocatorIiEEEES9_,
                            __ZNK3acv6vision10algorithms19TemporalPlanarModel8QuadTree27getTightBoundsFromLeafCellsEi,
                            __ZNK3acv6vision10algorithms19TemporalPlanarModel8QuadTree33getNumLeafsDetectedInEnoughFramesEi,
                            __ZNK3acv6vision10algorithms19TemporalPlanarModel8QuadTree4Cell6isLeafEv,
                            __ZNK3acv6vision10algorithms19TemporalPlanarModel8QuadTree8getCellsEi,
                            __ZNK3acv6vision10algorithms21VerticalPlaneDetector14computeInliersERKNS_8geometry10PointCloudIfEERKNS3_5PlaneIfEE,
                            __ZNK3acv6vision10algorithms21VerticalPlaneDetector15isPlaneVerticalERKNS_8geometry5PlaneIfEE,
                            __ZNK3acv6vision10algorithms21VerticalPlaneDetector21computeRefinedResultsERKNSt3__16vectorINS_8geometry5PlaneIfEENS3_9allocatorIS7_EEEENS3_10shared_ptrIKNS5_10PointCloudIfEEEENS_8OptionalIRKNS1_17PointsUncertaintyEvEE,
                            __ZNK3acv6vision10algorithms21VerticalPlaneDetector29computeInliersWithUncertaintyERKNS_8geometry10PointCloudIfEERKNS3_5PlaneIfEERKNS1_17PointsUncertaintyE,
                            __ZNK3acv6vision10algorithms23HorizontalPlaneDetector12detectPlanesENSt3__110shared_ptrIKNS_8geometry10PointCloudIfEEEE,
                            __ZNK3acv6vision10algorithms23HorizontalPlaneDetector12detectPlanesENSt3__110shared_ptrIKNS_8geometry10PointCloudIfEEEERKNS3_6vectorIfNS3_9allocatorIfEEEERKN3cva15SE3GroupStorageIfNSG_6MatrixIfLj4ELj4EEEEE,
                            __ZNK3acv8graphics12ConvertImage4hashEv,
                            __ZNK3acv8graphics12ConvertImage6equalsERKNS_20IHashableComputationE,
                            __ZNK3acv8graphics12ImagePyramid12getNumLevelsEv,
                            __ZNK3acv8graphics12ImagePyramid15getInverseScaleEj,
                            __ZNK3acv8graphics12ImagePyramid16getPyrImageConstEj,
                            __ZNK3acv8graphics12ImagePyramid8getScaleEj,
                            __ZNK3acv8graphics12ImagePyramid8getScaleEv,
                            __ZTIN3acv18ComputationHistoryE,
                            __ZTIN3acv18ComputationStorageE,
                            __ZTIN3acv19IComputationHistoryE,
                            __ZTIN3acv20IHashableComputationE,
                            __ZTIN3acv22WeakComputationHistoryE,
                            __ZTIN3acv23IComputationHistoryImplE,
                            __ZTIN3acv23IWeakComputationHistoryE,
                            __ZTIN3acv4math12ICameraModelE,
                            __ZTIN3acv4math13PinholeCameraE,
                            __ZTIN3acv4math18PinholeCameraModelE,
                            __ZTIN3acv4math7ICameraE,
                            __ZTIN3acv4time10TimerAppleE,
                            __ZTIN3acv6vision10algorithms21FacialLightEstimationE,
                            __ZTIN3acv6vision10estimation19LinearPoseEstimatorE,
                            __ZTIN3acv6vision6marker8BCHCoderE,
                            __ZTIN3acv8graphics12ConvertImageE,
                            __ZTSN3acv18ComputationHistoryE,
                            __ZTSN3acv18ComputationStorageE,
                            __ZTSN3acv19IComputationHistoryE,
                            __ZTSN3acv20IHashableComputationE,
                            __ZTSN3acv22WeakComputationHistoryE,
                            __ZTSN3acv23IComputationHistoryImplE,
                            __ZTSN3acv23IWeakComputationHistoryE,
                            __ZTSN3acv4math12ICameraModelE,
                            __ZTSN3acv4math13PinholeCameraE,
                            __ZTSN3acv4math18PinholeCameraModelE,
                            __ZTSN3acv4math7ICameraE,
                            __ZTSN3acv4time10TimerAppleE,
                            __ZTSN3acv6vision10algorithms21FacialLightEstimationE,
                            __ZTSN3acv6vision10estimation19LinearPoseEstimatorE,
                            __ZTSN3acv6vision6marker8BCHCoderE,
                            __ZTSN3acv8graphics12ConvertImageE,
                            __ZTVN3acv18ComputationHistoryE,
                            __ZTVN3acv18ComputationStorageE,
                            __ZTVN3acv19IComputationHistoryE,
                            __ZTVN3acv20IHashableComputationE,
                            __ZTVN3acv22WeakComputationHistoryE,
                            __ZTVN3acv23IComputationHistoryImplE,
                            __ZTVN3acv23IWeakComputationHistoryE,
                            __ZTVN3acv4math12ICameraModelE,
                            __ZTVN3acv4math13PinholeCameraE,
                            __ZTVN3acv4math18PinholeCameraModelE,
                            __ZTVN3acv4math7ICameraE,
                            __ZTVN3acv4time10TimerAppleE,
                            __ZTVN3acv6vision10algorithms21FacialLightEstimationE,
                            __ZTVN3acv6vision10estimation19LinearPoseEstimatorE,
                            __ZTVN3acv6vision6marker8BCHCoderE,
                            __ZTVN3acv8graphics12ConvertImageE,
                            _ar_createAttributeDictionaryNew,
                            _ar_faceLeftEyeTriangleCount,
                            _ar_faceMouthTriangleCount,
                            _ar_faceRightEyeTriangleCount,
                            _ar_faceTriangleIndicesLeftEye,
                            _ar_faceTriangleIndicesMouth,
                            _ar_faceTriangleIndicesRightEye,
                            _ar_pixelBufferPoolCreateNew, _copyHIDServicePlugin,
                            _rawAccelerometerCallback, _rawGyroscopeCallback,
                            _rawIOHIDEventCallback ]
    objc-classes:         [ ARAccelerometerData, ARAmbientLightData, ARAnchor,
                            ARBuiltInLatency, ARCamera, ARCameraAlignmentData,
                            ARCameraParameters, ARConfiguration,
                            ARCustomTechniquesConfiguration,
                            ARDeviceOrientationData, ARDeviceOrientationSensor,
                            ARDirectionalLightEstimate,
                            ARExposureLightEstimationTechnique, ARFaceAnchor,
                            ARFaceData, ARFaceGeometry,
                            ARFaceLightEstimationTechnique,
                            ARFaceTrackingConfiguration, ARFaceTrackingData,
                            ARFaceTrackingImageSensor,
                            ARFaceTrackingInternalTechnique,
                            ARFaceTrackingTechnique, ARFrame, ARFrameContext,
                            ARFrameTimingData, ARGyroscopeData, ARHWFaceDetection,
                            ARHitTestResult, ARIDMarker, ARIOMotionSensor,
                            ARImageAnchor, ARImageData, ARImageDetectionResult,
                            ARImageDetectionResultData,
                            ARImageDetectionTechnique, ARImageRotationTechnique,
                            ARImageScalingTechnique, ARImageSensor,
                            ARImageSensorSettings,
                            ARInternalFaceTrackingConfiguration, ARLightEstimate,
                            ARLightEstimationData, ARMarkerAnchor, ARMarkerData,
                            ARMarkerTrackingConfiguration,
                            ARMarkerTrackingTechnique, ARModifiedImageData,
                            ARMotionSensor, ARNeutralFaceGeometry,
                            AROrientationTrackingConfiguration, ARPatchGrid,
                            ARPlaneAnchor, ARPlaneData, ARPlaneEstimationTechnique,
                            ARPlaneGeometry, ARPointCloud, ARPoseContext,
                            ARQAJsonBuilder, ARQATraceDataBuilder, ARQATracer,
                            ARRecordingTechnique, ARReferenceImage,
                            ARReplayDepthData, ARReplayResultDataTechnique,
                            ARReplaySensor, ARReplayTimestampedData,
                            ARSCNFaceGeometry, ARSCNPlaneGeometry, ARSCNView,
                            ARSCNVisualizationHelper, ARSKView, ARScreenRecording,
                            ARSession, ARSessionMetrics, ARTechnique,
                            ARTechniqueGatherContext, ARVideoFormat,
                            ARWorldAlignmentData, ARWorldAlignmentTechnique,
                            ARWorldTrackingConfiguration,
                            ARWorldTrackingErrorData,
                            ARWorldTrackingFeaturePointData,
                            ARWorldTrackingPoseData,
                            ARWorldTrackingReferenceAnchorData,
                            ARWorldTrackingTechnique ]
    objc-ivars:           [ ARConfiguration._videoFormat,
                            ARImageDetectionTechnique._odtHandle,
                            ARNeutralFaceGeometry._texCoordinatesVector,
                            ARNeutralFaceGeometry._trianglesIndicesVector,
                            ARNeutralFaceGeometry._verticesVector ]
    weak-def-symbols:     [ __ZGVZN3acv8geometry11computeMeanIN3cva6MatrixIdLj3ELj1EEENS0_10PointCloudIdEEEET_RKT0_E7initVal,
                            __ZGVZN3acv8geometry11computeMeanIN3cva6MatrixIdLj3ELj1EEENS0_17IndexedPointCloudIdEEEET_RKT0_E7initVal,
                            __ZGVZN3acv8geometry11computeMeanIN3cva6MatrixIfLj2ELj1EEENSt3__15arrayIS4_Lm8EEEEET_RKT0_E7initVal,
                            __ZGVZN3acv8geometry11computeMeanIN3cva6MatrixIfLj3ELj1EEENS0_10PointCloudIfEEEET_RKT0_E7initVal,
                            __ZGVZN3acv8geometry11computeMeanIN3cva6MatrixIfLj3ELj1EEENS0_17IndexedPointCloudIfEEEET_RKT0_E7initVal,
                            __ZGVZNK3acv6vision10algorithms19TemporalPlanarModel22AxisAlignedBoundingBoxIfE19cornersInsideBoundsEvE9epsilon2f,
                            __ZN3acv6vision10algorithms19TemporalPlanarModel22AxisAlignedBoundingBoxIfE6updateERKN3cva6MatrixIfLj2ELj1EEE,
                            __ZN3acv6vision10algorithms19TemporalPlanarModel22AxisAlignedBoundingBoxIfE7combineERKS4_,
                            __ZN3acv6vision10algorithms19TemporalPlanarModel22AxisAlignedBoundingBoxIfEC1ERKN3cva6MatrixIfLj2ELj1EEES9_,
                            __ZN3acv6vision10algorithms19TemporalPlanarModel22AxisAlignedBoundingBoxIfEC1Ev,
                            __ZN3acv6vision10algorithms19TemporalPlanarModel22AxisAlignedBoundingBoxIfEC2ERKN3cva6MatrixIfLj2ELj1EEES9_,
                            __ZN3acv6vision10algorithms19TemporalPlanarModel22AxisAlignedBoundingBoxIfEC2Ev,
                            __ZN3acv6vision10estimation20RansacPlaneEstimatorIdEC1ERKNS1_26RansacPlaneEstimatorParamsIdEE,
                            __ZN3acv6vision10estimation20RansacPlaneEstimatorIdEC2ERKNS1_26RansacPlaneEstimatorParamsIdEE,
                            __ZN3acv6vision10estimation20RansacPlaneEstimatorIfEC1ERKNS1_26RansacPlaneEstimatorParamsIfEE,
                            __ZN3acv6vision10estimation20RansacPlaneEstimatorIfEC2ERKNS1_26RansacPlaneEstimatorParamsIfEE,
                            __ZN3acv6vision10estimation26LeastSquaresPlaneEstimatorIdEC1ERKNS1_32LeastSquaresPlaneEstimatorParamsIdEE,
                            __ZN3acv6vision10estimation26LeastSquaresPlaneEstimatorIdEC2ERKNS1_32LeastSquaresPlaneEstimatorParamsIdEE,
                            __ZN3acv6vision10estimation26LeastSquaresPlaneEstimatorIfEC1ERKNS1_32LeastSquaresPlaneEstimatorParamsIfEE,
                            __ZN3acv6vision10estimation26LeastSquaresPlaneEstimatorIfEC2ERKNS1_32LeastSquaresPlaneEstimatorParamsIfEE,
                            __ZN3acv6vision7feature18fitLine2dToContourIfEEvRKNSt3__16vectorINS1_5PixelIT_EENS3_9allocatorIS7_EEEEiiPf,
                            __ZN3acv6vision7feature18fitLine2dToContourIiEEvRKNSt3__16vectorINS1_5PixelIT_EENS3_9allocatorIS7_EEEEiiPf,
                            __ZN3acv6vision7feature19isOrientedClockwiseIfEEbRKNSt3__15arrayINS1_5PixelIT_EELm4EEE,
                            __ZN3acv6vision7feature19isOrientedClockwiseIiEEbRKNSt3__15arrayINS1_5PixelIT_EELm4EEE,
                            __ZN3acv6vision7feature35approximateQuadrilateralFromContourIfEEbRKNSt3__16vectorINS1_5PixelIT_EENS3_9allocatorIS7_EEEEfPiRNS3_5arrayINS5_IfEELm4EEE,
                            __ZN3acv6vision7feature35approximateQuadrilateralFromContourIiEEbRKNSt3__16vectorINS1_5PixelIT_EENS3_9allocatorIS7_EEEEfPiRNS3_5arrayINS5_IfEELm4EEE,
                            __ZN3acv8graphics10ImageViewTIKfE3MapEPS2_iiiRKNS0_13ECOLOR_FORMATEi,
                            __ZN3acv8graphics10ImageViewTIKfE3MapEPfiiiRKNS0_13ECOLOR_FORMATEi,
                            __ZN3acv8graphics10ImageViewTIKfE8is_constEv,
                            __ZN3acv8graphics10ImageViewTIKfEC1EOS3_,
                            __ZN3acv8graphics10ImageViewTIKfEC1ERKNSt3__110shared_ptrINS0_11ImageBufferIfEEEE,
                            __ZN3acv8graphics10ImageViewTIKfEC1ERKS3_,
                            __ZN3acv8graphics10ImageViewTIKfEC1Ev,
                            __ZN3acv8graphics10ImageViewTIKfEC2EOS3_,
                            __ZN3acv8graphics10ImageViewTIKfEC2ERKNSt3__110shared_ptrINS0_11ImageBufferIfEEEE,
                            __ZN3acv8graphics10ImageViewTIKfEC2ERKS3_,
                            __ZN3acv8graphics10ImageViewTIKfEC2Ev,
                            __ZN3acv8graphics10ImageViewTIKfED1Ev,
                            __ZN3acv8graphics10ImageViewTIKfED2Ev,
                            __ZN3acv8graphics10ImageViewTIKfEaSERKS3_,
                            __ZN3acv8graphics10ImageViewTIKhE3MapEPS2_iiiRKNS0_13ECOLOR_FORMATEi,
                            __ZN3acv8graphics10ImageViewTIKhE3MapEPhiiiRKNS0_13ECOLOR_FORMATEi,
                            __ZN3acv8graphics10ImageViewTIKhE8is_constEv,
                            __ZN3acv8graphics10ImageViewTIKhEC1EOS3_,
                            __ZN3acv8graphics10ImageViewTIKhEC1ERKNSt3__110shared_ptrINS0_11ImageBufferIhEEEE,
                            __ZN3acv8graphics10ImageViewTIKhEC1ERKS3_,
                            __ZN3acv8graphics10ImageViewTIKhEC1Ev,
                            __ZN3acv8graphics10ImageViewTIKhEC2EOS3_,
                            __ZN3acv8graphics10ImageViewTIKhEC2ERKNSt3__110shared_ptrINS0_11ImageBufferIhEEEE,
                            __ZN3acv8graphics10ImageViewTIKhEC2ERKS3_,
                            __ZN3acv8graphics10ImageViewTIKhEC2Ev,
                            __ZN3acv8graphics10ImageViewTIKhED1Ev,
                            __ZN3acv8graphics10ImageViewTIKhED2Ev,
                            __ZN3acv8graphics10ImageViewTIKhEaSERKS3_,
                            __ZN3acv8graphics10ImageViewTIKtE3MapEPS2_iiiRKNS0_13ECOLOR_FORMATEi,
                            __ZN3acv8graphics10ImageViewTIKtE3MapEPtiiiRKNS0_13ECOLOR_FORMATEi,
                            __ZN3acv8graphics10ImageViewTIKtE8is_constEv,
                            __ZN3acv8graphics10ImageViewTIKtEC1EOS3_,
                            __ZN3acv8graphics10ImageViewTIKtEC1ERKNSt3__110shared_ptrINS0_11ImageBufferItEEEE,
                            __ZN3acv8graphics10ImageViewTIKtEC1ERKS3_,
                            __ZN3acv8graphics10ImageViewTIKtEC1Ev,
                            __ZN3acv8graphics10ImageViewTIKtEC2EOS3_,
                            __ZN3acv8graphics10ImageViewTIKtEC2ERKNSt3__110shared_ptrINS0_11ImageBufferItEEEE,
                            __ZN3acv8graphics10ImageViewTIKtEC2ERKS3_,
                            __ZN3acv8graphics10ImageViewTIKtEC2Ev,
                            __ZN3acv8graphics10ImageViewTIKtED1Ev,
                            __ZN3acv8graphics10ImageViewTIKtED2Ev,
                            __ZN3acv8graphics10ImageViewTIKtEaSERKS3_,
                            __ZN3acv8graphics10ImageViewTIfE3MapEPKfiiiRKNS0_13ECOLOR_FORMATEi,
                            __ZN3acv8graphics10ImageViewTIfE3MapEPfiiiRKNS0_13ECOLOR_FORMATEi,
                            __ZN3acv8graphics10ImageViewTIfE8is_constEv,
                            __ZN3acv8graphics10ImageViewTIfEC1ERKNSt3__110shared_ptrINS0_11ImageBufferIfEEEE,
                            __ZN3acv8graphics10ImageViewTIfEC1ERKS2_,
                            __ZN3acv8graphics10ImageViewTIfEC1Ev,
                            __ZN3acv8graphics10ImageViewTIfEC2EOS2_,
                            __ZN3acv8graphics10ImageViewTIfEC2ERKNSt3__110shared_ptrINS0_11ImageBufferIfEEEE,
                            __ZN3acv8graphics10ImageViewTIfEC2ERKS2_,
                            __ZN3acv8graphics10ImageViewTIfEC2Ev,
                            __ZN3acv8graphics10ImageViewTIfED1Ev,
                            __ZN3acv8graphics10ImageViewTIfED2Ev,
                            __ZN3acv8graphics10ImageViewTIfEaSERKS2_,
                            __ZN3acv8graphics10ImageViewTIhE3MapEPKhiiiRKNS0_13ECOLOR_FORMATEi,
                            __ZN3acv8graphics10ImageViewTIhE3MapEPhiiiRKNS0_13ECOLOR_FORMATEi,
                            __ZN3acv8graphics10ImageViewTIhE8is_constEv,
                            __ZN3acv8graphics10ImageViewTIhEC1ERKNSt3__110shared_ptrINS0_11ImageBufferIhEEEE,
                            __ZN3acv8graphics10ImageViewTIhEC1ERKS2_,
                            __ZN3acv8graphics10ImageViewTIhEC1Ev,
                            __ZN3acv8graphics10ImageViewTIhEC2EOS2_,
                            __ZN3acv8graphics10ImageViewTIhEC2ERKNSt3__110shared_ptrINS0_11ImageBufferIhEEEE,
                            __ZN3acv8graphics10ImageViewTIhEC2ERKS2_,
                            __ZN3acv8graphics10ImageViewTIhEC2Ev,
                            __ZN3acv8graphics10ImageViewTIhED1Ev,
                            __ZN3acv8graphics10ImageViewTIhED2Ev,
                            __ZN3acv8graphics10ImageViewTIhEaSERKS2_,
                            __ZN3acv8graphics10ImageViewTItE3MapEPKtiiiRKNS0_13ECOLOR_FORMATEi,
                            __ZN3acv8graphics10ImageViewTItE3MapEPtiiiRKNS0_13ECOLOR_FORMATEi,
                            __ZN3acv8graphics10ImageViewTItE8is_constEv,
                            __ZN3acv8graphics10ImageViewTItEC1ERKNSt3__110shared_ptrINS0_11ImageBufferItEEEE,
                            __ZN3acv8graphics10ImageViewTItEC1ERKS2_,
                            __ZN3acv8graphics10ImageViewTItEC1Ev,
                            __ZN3acv8graphics10ImageViewTItEC2EOS2_,
                            __ZN3acv8graphics10ImageViewTItEC2ERKNSt3__110shared_ptrINS0_11ImageBufferItEEEE,
                            __ZN3acv8graphics10ImageViewTItEC2ERKS2_,
                            __ZN3acv8graphics10ImageViewTItEC2Ev,
                            __ZN3acv8graphics10ImageViewTItED1Ev,
                            __ZN3acv8graphics10ImageViewTItED2Ev,
                            __ZN3acv8graphics10ImageViewTItEaSERKS2_,
                            __ZN3acv8graphics11ImageBufferIfE4dataEv,
                            __ZN3acv8graphics11ImageBufferIfE4fillERKf,
                            __ZN3acv8graphics11ImageBufferIfE9structureEv,
                            __ZN3acv8graphics11ImageBufferIfEC1EPfRKNS0_20ImageBufferStructureE,
                            __ZN3acv8graphics11ImageBufferIfEC1EPfiiiRKNS0_13ECOLOR_FORMATEi,
                            __ZN3acv8graphics11ImageBufferIfEC1ERNS0_6BufferIfEEiiiRKNS0_13ECOLOR_FORMATEi,
                            __ZN3acv8graphics11ImageBufferIfEC1EiiRKNS0_13ECOLOR_FORMATE,
                            __ZN3acv8graphics11ImageBufferIfEC1EiiiRKNS0_13ECOLOR_FORMATEi,
                            __ZN3acv8graphics11ImageBufferIfEC1Ev,
                            __ZN3acv8graphics11ImageBufferIfEC2EPfRKNS0_20ImageBufferStructureE,
                            __ZN3acv8graphics11ImageBufferIfEC2EPfiiiRKNS0_13ECOLOR_FORMATEi,
                            __ZN3acv8graphics11ImageBufferIfEC2ERNS0_6BufferIfEEiiiRKNS0_13ECOLOR_FORMATEi,
                            __ZN3acv8graphics11ImageBufferIfEC2EiiRKNS0_13ECOLOR_FORMATE,
                            __ZN3acv8graphics11ImageBufferIfEC2EiiiRKNS0_13ECOLOR_FORMATEi,
                            __ZN3acv8graphics11ImageBufferIfEC2Ev,
                            __ZN3acv8graphics11ImageBufferIfED1Ev,
                            __ZN3acv8graphics11ImageBufferIfED2Ev,
                            __ZN3acv8graphics11ImageBufferIhE4dataEv,
                            __ZN3acv8graphics11ImageBufferIhE4fillERKh,
                            __ZN3acv8graphics11ImageBufferIhE9structureEv,
                            __ZN3acv8graphics11ImageBufferIhEC1EPhRKNS0_20ImageBufferStructureE,
                            __ZN3acv8graphics11ImageBufferIhEC1EPhiiiRKNS0_13ECOLOR_FORMATEi,
                            __ZN3acv8graphics11ImageBufferIhEC1ERNS0_6BufferIhEEiiiRKNS0_13ECOLOR_FORMATEi,
                            __ZN3acv8graphics11ImageBufferIhEC1EiiRKNS0_13ECOLOR_FORMATE,
                            __ZN3acv8graphics11ImageBufferIhEC1EiiiRKNS0_13ECOLOR_FORMATEi,
                            __ZN3acv8graphics11ImageBufferIhEC1Ev,
                            __ZN3acv8graphics11ImageBufferIhEC2EPhRKNS0_20ImageBufferStructureE,
                            __ZN3acv8graphics11ImageBufferIhEC2EPhiiiRKNS0_13ECOLOR_FORMATEi,
                            __ZN3acv8graphics11ImageBufferIhEC2ERNS0_6BufferIhEEiiiRKNS0_13ECOLOR_FORMATEi,
                            __ZN3acv8graphics11ImageBufferIhEC2EiiRKNS0_13ECOLOR_FORMATE,
                            __ZN3acv8graphics11ImageBufferIhEC2EiiiRKNS0_13ECOLOR_FORMATEi,
                            __ZN3acv8graphics11ImageBufferIhEC2Ev,
                            __ZN3acv8graphics11ImageBufferIhED1Ev,
                            __ZN3acv8graphics11ImageBufferIhED2Ev,
                            __ZN3acv8graphics11ImageBufferItE4dataEv,
                            __ZN3acv8graphics11ImageBufferItE4fillERKt,
                            __ZN3acv8graphics11ImageBufferItE9structureEv,
                            __ZN3acv8graphics11ImageBufferItEC1EPtRKNS0_20ImageBufferStructureE,
                            __ZN3acv8graphics11ImageBufferItEC1EPtiiiRKNS0_13ECOLOR_FORMATEi,
                            __ZN3acv8graphics11ImageBufferItEC1ERNS0_6BufferItEEiiiRKNS0_13ECOLOR_FORMATEi,
                            __ZN3acv8graphics11ImageBufferItEC1EiiRKNS0_13ECOLOR_FORMATE,
                            __ZN3acv8graphics11ImageBufferItEC1EiiiRKNS0_13ECOLOR_FORMATEi,
                            __ZN3acv8graphics11ImageBufferItEC1Ev,
                            __ZN3acv8graphics11ImageBufferItEC2EPtRKNS0_20ImageBufferStructureE,
                            __ZN3acv8graphics11ImageBufferItEC2EPtiiiRKNS0_13ECOLOR_FORMATEi,
                            __ZN3acv8graphics11ImageBufferItEC2ERNS0_6BufferItEEiiiRKNS0_13ECOLOR_FORMATEi,
                            __ZN3acv8graphics11ImageBufferItEC2EiiRKNS0_13ECOLOR_FORMATE,
                            __ZN3acv8graphics11ImageBufferItEC2EiiiRKNS0_13ECOLOR_FORMATEi,
                            __ZN3acv8graphics11ImageBufferItEC2Ev,
                            __ZN3acv8graphics11ImageBufferItED1Ev,
                            __ZN3acv8graphics11ImageBufferItED2Ev,
                            __ZN3acv8graphics12ImagePyramid17fillConvexPolygonILj3EEEvRKN3cva6MatrixIfXT_ELj2EEEiif,
                            __ZN3acv8graphics12ImagePyramid17fillConvexPolygonILj4EEEvRKN3cva6MatrixIfXT_ELj2EEEiif,
                            __ZN3acv8graphics12ImagePyramid17fillConvexPolygonILj5EEEvRKN3cva6MatrixIfXT_ELj2EEEiif,
                            __ZN3acv8graphics12ImagePyramid18fillConvexPolygonsILj3EEEvRKNSt3__16vectorIN3cva6MatrixIfXT_ELj2EEENS3_9allocatorIS7_EEEEiif,
                            __ZN3acv8graphics12ImagePyramid18fillConvexPolygonsILj4EEEvRKNSt3__16vectorIN3cva6MatrixIfXT_ELj2EEENS3_9allocatorIS7_EEEEiif,
                            __ZN3acv8graphics12ImagePyramid18fillConvexPolygonsILj5EEEvRKNSt3__16vectorIN3cva6MatrixIfXT_ELj2EEENS3_9allocatorIS7_EEEEiif,
                            __ZN3acv8graphics27interp2NearestNeighbor_fastILj1EEEiPKhPKfPhiiiiiih,
                            __ZN3acv8graphics27interp2NearestNeighbor_fastILj3EEEiPKhPKfPhiiiiiih,
                            __ZN3acv8graphics27interp2NearestNeighbor_fastILj4EEEiPKhPKfPhiiiiiih,
                            __ZN3acv8graphics6ImageTIKfE4CopyEPS2_iiiRKNS0_13ECOLOR_FORMATEi,
                            __ZN3acv8graphics6ImageTIKfE4CopyEPS2_iiiRKNS0_13ECOLOR_FORMATEiii,
                            __ZN3acv8graphics6ImageTIKfEC1ERKNSt3__110shared_ptrINS0_11ImageBufferIfEEEE,
                            __ZN3acv8graphics6ImageTIKfEC1EiiRKNS0_13ECOLOR_FORMATE,
                            __ZN3acv8graphics6ImageTIKfEC1EiiiRKNS0_13ECOLOR_FORMATEi,
                            __ZN3acv8graphics6ImageTIKfEC1Ev,
                            __ZN3acv8graphics6ImageTIKfEC2ERKNSt3__110shared_ptrINS0_11ImageBufferIfEEEE,
                            __ZN3acv8graphics6ImageTIKfEC2EiiRKNS0_13ECOLOR_FORMATE,
                            __ZN3acv8graphics6ImageTIKfEC2EiiiRKNS0_13ECOLOR_FORMATEi,
                            __ZN3acv8graphics6ImageTIKfEC2Ev,
                            __ZN3acv8graphics6ImageTIKfED1Ev,
                            __ZN3acv8graphics6ImageTIKfED2Ev,
                            __ZN3acv8graphics6ImageTIKfEaSERKS3_,
                            __ZN3acv8graphics6ImageTIKhE4CopyEPS2_iiiRKNS0_13ECOLOR_FORMATEi,
                            __ZN3acv8graphics6ImageTIKhE4CopyEPS2_iiiRKNS0_13ECOLOR_FORMATEiii,
                            __ZN3acv8graphics6ImageTIKhEC1ERKNSt3__110shared_ptrINS0_11ImageBufferIhEEEE,
                            __ZN3acv8graphics6ImageTIKhEC1ERKS3_,
                            __ZN3acv8graphics6ImageTIKhEC1EiiRKNS0_13ECOLOR_FORMATE,
                            __ZN3acv8graphics6ImageTIKhEC1EiiiRKNS0_13ECOLOR_FORMATEi,
                            __ZN3acv8graphics6ImageTIKhEC1Ev,
                            __ZN3acv8graphics6ImageTIKhEC2ERKNSt3__110shared_ptrINS0_11ImageBufferIhEEEE,
                            __ZN3acv8graphics6ImageTIKhEC2ERKS3_,
                            __ZN3acv8graphics6ImageTIKhEC2EiiRKNS0_13ECOLOR_FORMATE,
                            __ZN3acv8graphics6ImageTIKhEC2EiiiRKNS0_13ECOLOR_FORMATEi,
                            __ZN3acv8graphics6ImageTIKhEC2Ev,
                            __ZN3acv8graphics6ImageTIKhED1Ev,
                            __ZN3acv8graphics6ImageTIKhED2Ev,
                            __ZN3acv8graphics6ImageTIKhEaSERKS3_,
                            __ZN3acv8graphics6ImageTIKtE4CopyEPS2_iiiRKNS0_13ECOLOR_FORMATEi,
                            __ZN3acv8graphics6ImageTIKtE4CopyEPS2_iiiRKNS0_13ECOLOR_FORMATEiii,
                            __ZN3acv8graphics6ImageTIKtEC1ERKNSt3__110shared_ptrINS0_11ImageBufferItEEEE,
                            __ZN3acv8graphics6ImageTIKtEC1EiiRKNS0_13ECOLOR_FORMATE,
                            __ZN3acv8graphics6ImageTIKtEC1EiiiRKNS0_13ECOLOR_FORMATEi,
                            __ZN3acv8graphics6ImageTIKtEC1Ev,
                            __ZN3acv8graphics6ImageTIKtEC2ERKNSt3__110shared_ptrINS0_11ImageBufferItEEEE,
                            __ZN3acv8graphics6ImageTIKtEC2EiiRKNS0_13ECOLOR_FORMATE,
                            __ZN3acv8graphics6ImageTIKtEC2EiiiRKNS0_13ECOLOR_FORMATEi,
                            __ZN3acv8graphics6ImageTIKtEC2Ev,
                            __ZN3acv8graphics6ImageTIKtED1Ev,
                            __ZN3acv8graphics6ImageTIKtED2Ev,
                            __ZN3acv8graphics6ImageTIKtEaSERKS3_,
                            __ZN3acv8graphics6ImageTIfE4CopyEPKfiiiRKNS0_13ECOLOR_FORMATEi,
                            __ZN3acv8graphics6ImageTIfE4CopyEPKfiiiRKNS0_13ECOLOR_FORMATEiii,
                            __ZN3acv8graphics6ImageTIfEC1EOS2_,
                            __ZN3acv8graphics6ImageTIfEC1ERKNSt3__110shared_ptrINS0_11ImageBufferIfEEEE,
                            __ZN3acv8graphics6ImageTIfEC1EiiRKNS0_13ECOLOR_FORMATE,
                            __ZN3acv8graphics6ImageTIfEC1EiiiRKNS0_13ECOLOR_FORMATEi,
                            __ZN3acv8graphics6ImageTIfEC1Ev,
                            __ZN3acv8graphics6ImageTIfEC2EOS2_,
                            __ZN3acv8graphics6ImageTIfEC2ERKNSt3__110shared_ptrINS0_11ImageBufferIfEEEE,
                            __ZN3acv8graphics6ImageTIfEC2EiiRKNS0_13ECOLOR_FORMATE,
                            __ZN3acv8graphics6ImageTIfEC2EiiiRKNS0_13ECOLOR_FORMATEi,
                            __ZN3acv8graphics6ImageTIfEC2Ev,
                            __ZN3acv8graphics6ImageTIfED1Ev,
                            __ZN3acv8graphics6ImageTIfED2Ev,
                            __ZN3acv8graphics6ImageTIfEaSERKS2_,
                            __ZN3acv8graphics6ImageTIhE4CopyEPKhiiiRKNS0_13ECOLOR_FORMATEi,
                            __ZN3acv8graphics6ImageTIhE4CopyEPKhiiiRKNS0_13ECOLOR_FORMATEiii,
                            __ZN3acv8graphics6ImageTIhEC1EOS2_,
                            __ZN3acv8graphics6ImageTIhEC1ERKNSt3__110shared_ptrINS0_11ImageBufferIhEEEE,
                            __ZN3acv8graphics6ImageTIhEC1EiiRKNS0_13ECOLOR_FORMATE,
                            __ZN3acv8graphics6ImageTIhEC1EiiiRKNS0_13ECOLOR_FORMATEi,
                            __ZN3acv8graphics6ImageTIhEC1Ev,
                            __ZN3acv8graphics6ImageTIhEC2EOS2_,
                            __ZN3acv8graphics6ImageTIhEC2ERKNSt3__110shared_ptrINS0_11ImageBufferIhEEEE,
                            __ZN3acv8graphics6ImageTIhEC2EiiRKNS0_13ECOLOR_FORMATE,
                            __ZN3acv8graphics6ImageTIhEC2EiiiRKNS0_13ECOLOR_FORMATEi,
                            __ZN3acv8graphics6ImageTIhEC2Ev,
                            __ZN3acv8graphics6ImageTIhED1Ev,
                            __ZN3acv8graphics6ImageTIhED2Ev,
                            __ZN3acv8graphics6ImageTIhEaSERKS2_,
                            __ZN3acv8graphics6ImageTItE4CopyEPKtiiiRKNS0_13ECOLOR_FORMATEi,
                            __ZN3acv8graphics6ImageTItE4CopyEPKtiiiRKNS0_13ECOLOR_FORMATEiii,
                            __ZN3acv8graphics6ImageTItEC1EOS2_,
                            __ZN3acv8graphics6ImageTItEC1ERKNSt3__110shared_ptrINS0_11ImageBufferItEEEE,
                            __ZN3acv8graphics6ImageTItEC1EiiRKNS0_13ECOLOR_FORMATE,
                            __ZN3acv8graphics6ImageTItEC1EiiiRKNS0_13ECOLOR_FORMATEi,
                            __ZN3acv8graphics6ImageTItEC1Ev,
                            __ZN3acv8graphics6ImageTItEC2EOS2_,
                            __ZN3acv8graphics6ImageTItEC2ERKNSt3__110shared_ptrINS0_11ImageBufferItEEEE,
                            __ZN3acv8graphics6ImageTItEC2EiiRKNS0_13ECOLOR_FORMATE,
                            __ZN3acv8graphics6ImageTItEC2EiiiRKNS0_13ECOLOR_FORMATEi,
                            __ZN3acv8graphics6ImageTItEC2Ev,
                            __ZN3acv8graphics6ImageTItED1Ev,
                            __ZN3acv8graphics6ImageTItED2Ev,
                            __ZN3acv8graphics6ImageTItEaSERKS2_,
                            __ZN3acv8graphicslsIKfEERNSt3__113basic_ostreamIcNS3_11char_traitsIcEEEES8_NS0_10ImageViewTIT_EE,
                            __ZN3acv8graphicslsIKhEERNSt3__113basic_ostreamIcNS3_11char_traitsIcEEEES8_NS0_10ImageViewTIT_EE,
                            __ZN3acv8graphicslsIKtEERNSt3__113basic_ostreamIcNS3_11char_traitsIcEEEES8_NS0_10ImageViewTIT_EE,
                            __ZN3acv8graphicslsIfEERNSt3__113basic_ostreamIcNS2_11char_traitsIcEEEES7_NS0_10ImageViewTIT_EE,
                            __ZN3acv8graphicslsIhEERNSt3__113basic_ostreamIcNS2_11char_traitsIcEEEES7_NS0_10ImageViewTIT_EE,
                            __ZN3acv8graphicslsItEERNSt3__113basic_ostreamIcNS2_11char_traitsIcEEEES7_NS0_10ImageViewTIT_EE,
                            __ZNK3acv6vision10algorithms19TemporalPlanarModel22AxisAlignedBoundingBoxIfE10dimensionsEv,
                            __ZNK3acv6vision10algorithms19TemporalPlanarModel22AxisAlignedBoundingBoxIfE17intersectsWithBoxERKS4_,
                            __ZNK3acv6vision10algorithms19TemporalPlanarModel22AxisAlignedBoundingBoxIfE19cornersInsideBoundsEv,
                            __ZNK3acv6vision10algorithms19TemporalPlanarModel22AxisAlignedBoundingBoxIfE21intersectWithTriangleERKNSt3__15arrayIN3cva6MatrixIfLj2ELj1EEELm3EEERKNS6_INS_8geometry5Line2IfEELm3EEERKNS8_IfLj2ELj2EEERS4_SM_,
                            __ZNK3acv6vision10algorithms19TemporalPlanarModel22AxisAlignedBoundingBoxIfE4areaEv,
                            __ZNK3acv6vision10algorithms19TemporalPlanarModel22AxisAlignedBoundingBoxIfE5sidesEv,
                            __ZNK3acv6vision10algorithms19TemporalPlanarModel22AxisAlignedBoundingBoxIfE6centerEv,
                            __ZNK3acv6vision10algorithms19TemporalPlanarModel22AxisAlignedBoundingBoxIfE7cornersEv,
                            __ZNK3acv6vision10algorithms19TemporalPlanarModel22AxisAlignedBoundingBoxIfE8containsERKN3cva6MatrixIfLj2ELj1EEE,
                            __ZNK3acv6vision10algorithms19TemporalPlanarModel22AxisAlignedBoundingBoxIfEcvNS_8geometry12BoundingBox2IfLNS5_16BoundingBoxFlagsE1EEEEv,
                            __ZNK3acv6vision10estimation20RansacPlaneEstimatorIdE13estimatePlaneERKNS_8geometry10PointCloudIdEERKN3cva6MatrixIdLj3ELj1EEE,
                            __ZNK3acv6vision10estimation20RansacPlaneEstimatorIdE13estimatePlaneERKNS_8geometry17IndexedPointCloudIdEERKN3cva6MatrixIdLj3ELj1EEE,
                            __ZNK3acv6vision10estimation20RansacPlaneEstimatorIdE7isPlaneERKNS_8geometry10PointCloudIdEE,
                            __ZNK3acv6vision10estimation20RansacPlaneEstimatorIdE7isPlaneERKNS_8geometry17IndexedPointCloudIdEE,
                            __ZNK3acv6vision10estimation20RansacPlaneEstimatorIfE13estimatePlaneERKNS_8geometry10PointCloudIfEERKN3cva6MatrixIfLj3ELj1EEE,
                            __ZNK3acv6vision10estimation20RansacPlaneEstimatorIfE13estimatePlaneERKNS_8geometry17IndexedPointCloudIfEERKN3cva6MatrixIfLj3ELj1EEE,
                            __ZNK3acv6vision10estimation20RansacPlaneEstimatorIfE7isPlaneERKNS_8geometry10PointCloudIfEE,
                            __ZNK3acv6vision10estimation20RansacPlaneEstimatorIfE7isPlaneERKNS_8geometry17IndexedPointCloudIfEE,
                            __ZNK3acv6vision10estimation26LeastSquaresPlaneEstimatorIdE13estimatePlaneERKNS_8geometry10PointCloudIdEERKN3cva6MatrixIdLj3ELj1EEE,
                            __ZNK3acv6vision10estimation26LeastSquaresPlaneEstimatorIdE13estimatePlaneERKNS_8geometry17IndexedPointCloudIdEERKN3cva6MatrixIdLj3ELj1EEE,
                            __ZNK3acv6vision10estimation26LeastSquaresPlaneEstimatorIdE7isPlaneERKNS_8geometry10PointCloudIdEE,
                            __ZNK3acv6vision10estimation26LeastSquaresPlaneEstimatorIdE7isPlaneERKNS_8geometry17IndexedPointCloudIdEE,
                            __ZNK3acv6vision10estimation26LeastSquaresPlaneEstimatorIfE13estimatePlaneERKNS_8geometry10PointCloudIfEERKN3cva6MatrixIfLj3ELj1EEE,
                            __ZNK3acv6vision10estimation26LeastSquaresPlaneEstimatorIfE13estimatePlaneERKNS_8geometry17IndexedPointCloudIfEERKN3cva6MatrixIfLj3ELj1EEE,
                            __ZNK3acv6vision10estimation26LeastSquaresPlaneEstimatorIfE7isPlaneERKNS_8geometry10PointCloudIfEE,
                            __ZNK3acv6vision10estimation26LeastSquaresPlaneEstimatorIfE7isPlaneERKNS_8geometry17IndexedPointCloudIfEE,
                            __ZNK3acv8graphics10ImageViewTIKfE10bufferSizeEv,
                            __ZNK3acv8graphics10ImageViewTIKfE14imageBufferPtrEv,
                            __ZNK3acv8graphics10ImageViewTIKfE16imageBufferConstEv,
                            __ZNK3acv8graphics10ImageViewTIKfE18planePaddingOffsetEv,
                            __ZNK3acv8graphics10ImageViewTIKfE4dataEv,
                            __ZNK3acv8graphics10ImageViewTIKfE5cloneEv,
                            __ZNK3acv8graphics10ImageViewTIKfE5validEv,
                            __ZNK3acv8graphics10ImageViewTIKfE5widthEv,
                            __ZNK3acv8graphics10ImageViewTIKfE6bufferEv,
                            __ZNK3acv8graphics10ImageViewTIKfE6copyToENS1_IfEE,
                            __ZNK3acv8graphics10ImageViewTIKfE6formatEv,
                            __ZNK3acv8graphics10ImageViewTIKfE6heightEv,
                            __ZNK3acv8graphics10ImageViewTIKfE6strideEv,
                            __ZNK3acv8graphics10ImageViewTIKfE8channelsEv,
                            __ZNK3acv8graphics10ImageViewTIKfE9pixelStepEv,
                            __ZNK3acv8graphics10ImageViewTIKfEclERKNS_8geometry4RectIiEE,
                            __ZNK3acv8graphics10ImageViewTIKfEclEiii,
                            __ZNK3acv8graphics10ImageViewTIKfEcvRKS3_Ev,
                            __ZNK3acv8graphics10ImageViewTIKfEcvbEv,
                            __ZNK3acv8graphics10ImageViewTIKfEeqES3_,
                            __ZNK3acv8graphics10ImageViewTIKhE10bufferSizeEv,
                            __ZNK3acv8graphics10ImageViewTIKhE14imageBufferPtrEv,
                            __ZNK3acv8graphics10ImageViewTIKhE16imageBufferConstEv,
                            __ZNK3acv8graphics10ImageViewTIKhE18planePaddingOffsetEv,
                            __ZNK3acv8graphics10ImageViewTIKhE4dataEv,
                            __ZNK3acv8graphics10ImageViewTIKhE5cloneEv,
                            __ZNK3acv8graphics10ImageViewTIKhE5validEv,
                            __ZNK3acv8graphics10ImageViewTIKhE5widthEv,
                            __ZNK3acv8graphics10ImageViewTIKhE6bufferEv,
                            __ZNK3acv8graphics10ImageViewTIKhE6copyToENS1_IhEE,
                            __ZNK3acv8graphics10ImageViewTIKhE6formatEv,
                            __ZNK3acv8graphics10ImageViewTIKhE6heightEv,
                            __ZNK3acv8graphics10ImageViewTIKhE6strideEv,
                            __ZNK3acv8graphics10ImageViewTIKhE8channelsEv,
                            __ZNK3acv8graphics10ImageViewTIKhE9pixelStepEv,
                            __ZNK3acv8graphics10ImageViewTIKhEclERKNS_8geometry4RectIiEE,
                            __ZNK3acv8graphics10ImageViewTIKhEclEiii,
                            __ZNK3acv8graphics10ImageViewTIKhEcvRKS3_Ev,
                            __ZNK3acv8graphics10ImageViewTIKhEcvbEv,
                            __ZNK3acv8graphics10ImageViewTIKhEeqES3_,
                            __ZNK3acv8graphics10ImageViewTIKtE10bufferSizeEv,
                            __ZNK3acv8graphics10ImageViewTIKtE14imageBufferPtrEv,
                            __ZNK3acv8graphics10ImageViewTIKtE16imageBufferConstEv,
                            __ZNK3acv8graphics10ImageViewTIKtE18planePaddingOffsetEv,
                            __ZNK3acv8graphics10ImageViewTIKtE4dataEv,
                            __ZNK3acv8graphics10ImageViewTIKtE5cloneEv,
                            __ZNK3acv8graphics10ImageViewTIKtE5validEv,
                            __ZNK3acv8graphics10ImageViewTIKtE5widthEv,
                            __ZNK3acv8graphics10ImageViewTIKtE6bufferEv,
                            __ZNK3acv8graphics10ImageViewTIKtE6copyToENS1_ItEE,
                            __ZNK3acv8graphics10ImageViewTIKtE6formatEv,
                            __ZNK3acv8graphics10ImageViewTIKtE6heightEv,
                            __ZNK3acv8graphics10ImageViewTIKtE6strideEv,
                            __ZNK3acv8graphics10ImageViewTIKtE8channelsEv,
                            __ZNK3acv8graphics10ImageViewTIKtE9pixelStepEv,
                            __ZNK3acv8graphics10ImageViewTIKtEclERKNS_8geometry4RectIiEE,
                            __ZNK3acv8graphics10ImageViewTIKtEclEiii,
                            __ZNK3acv8graphics10ImageViewTIKtEcvRKS3_Ev,
                            __ZNK3acv8graphics10ImageViewTIKtEcvbEv,
                            __ZNK3acv8graphics10ImageViewTIKtEeqES3_,
                            __ZNK3acv8graphics10ImageViewTIfE10bufferSizeEv,
                            __ZNK3acv8graphics10ImageViewTIfE14imageBufferPtrEv,
                            __ZNK3acv8graphics10ImageViewTIfE16imageBufferConstEv,
                            __ZNK3acv8graphics10ImageViewTIfE18planePaddingOffsetEv,
                            __ZNK3acv8graphics10ImageViewTIfE4dataEv,
                            __ZNK3acv8graphics10ImageViewTIfE5cloneEv,
                            __ZNK3acv8graphics10ImageViewTIfE5validEv,
                            __ZNK3acv8graphics10ImageViewTIfE5widthEv,
                            __ZNK3acv8graphics10ImageViewTIfE6bufferEv,
                            __ZNK3acv8graphics10ImageViewTIfE6copyToES2_,
                            __ZNK3acv8graphics10ImageViewTIfE6formatEv,
                            __ZNK3acv8graphics10ImageViewTIfE6heightEv,
                            __ZNK3acv8graphics10ImageViewTIfE6strideEv,
                            __ZNK3acv8graphics10ImageViewTIfE8channelsEv,
                            __ZNK3acv8graphics10ImageViewTIfE9pixelStepEv,
                            __ZNK3acv8graphics10ImageViewTIfEclERKNS_8geometry4RectIiEE,
                            __ZNK3acv8graphics10ImageViewTIfEclEiii,
                            __ZNK3acv8graphics10ImageViewTIfEcvRKNS1_IKfEEEv,
                            __ZNK3acv8graphics10ImageViewTIfEcvbEv,
                            __ZNK3acv8graphics10ImageViewTIfEeqES2_,
                            __ZNK3acv8graphics10ImageViewTIhE10bufferSizeEv,
                            __ZNK3acv8graphics10ImageViewTIhE14imageBufferPtrEv,
                            __ZNK3acv8graphics10ImageViewTIhE16imageBufferConstEv,
                            __ZNK3acv8graphics10ImageViewTIhE18planePaddingOffsetEv,
                            __ZNK3acv8graphics10ImageViewTIhE4dataEv,
                            __ZNK3acv8graphics10ImageViewTIhE5cloneEv,
                            __ZNK3acv8graphics10ImageViewTIhE5validEv,
                            __ZNK3acv8graphics10ImageViewTIhE5widthEv,
                            __ZNK3acv8graphics10ImageViewTIhE6bufferEv,
                            __ZNK3acv8graphics10ImageViewTIhE6copyToES2_,
                            __ZNK3acv8graphics10ImageViewTIhE6formatEv,
                            __ZNK3acv8graphics10ImageViewTIhE6heightEv,
                            __ZNK3acv8graphics10ImageViewTIhE6strideEv,
                            __ZNK3acv8graphics10ImageViewTIhE8channelsEv,
                            __ZNK3acv8graphics10ImageViewTIhE9pixelStepEv,
                            __ZNK3acv8graphics10ImageViewTIhEclERKNS_8geometry4RectIiEE,
                            __ZNK3acv8graphics10ImageViewTIhEclEiii,
                            __ZNK3acv8graphics10ImageViewTIhEcvRKNS1_IKhEEEv,
                            __ZNK3acv8graphics10ImageViewTIhEcvbEv,
                            __ZNK3acv8graphics10ImageViewTIhEeqES2_,
                            __ZNK3acv8graphics10ImageViewTItE10bufferSizeEv,
                            __ZNK3acv8graphics10ImageViewTItE14imageBufferPtrEv,
                            __ZNK3acv8graphics10ImageViewTItE16imageBufferConstEv,
                            __ZNK3acv8graphics10ImageViewTItE18planePaddingOffsetEv,
                            __ZNK3acv8graphics10ImageViewTItE4dataEv,
                            __ZNK3acv8graphics10ImageViewTItE5cloneEv,
                            __ZNK3acv8graphics10ImageViewTItE5validEv,
                            __ZNK3acv8graphics10ImageViewTItE5widthEv,
                            __ZNK3acv8graphics10ImageViewTItE6bufferEv,
                            __ZNK3acv8graphics10ImageViewTItE6copyToES2_,
                            __ZNK3acv8graphics10ImageViewTItE6formatEv,
                            __ZNK3acv8graphics10ImageViewTItE6heightEv,
                            __ZNK3acv8graphics10ImageViewTItE6strideEv,
                            __ZNK3acv8graphics10ImageViewTItE8channelsEv,
                            __ZNK3acv8graphics10ImageViewTItE9pixelStepEv,
                            __ZNK3acv8graphics10ImageViewTItEclERKNS_8geometry4RectIiEE,
                            __ZNK3acv8graphics10ImageViewTItEclEiii,
                            __ZNK3acv8graphics10ImageViewTItEcvRKNS1_IKtEEEv,
                            __ZNK3acv8graphics10ImageViewTItEcvbEv,
                            __ZNK3acv8graphics10ImageViewTItEeqES2_,
                            __ZNK3acv8graphics11ImageBufferIfE10bufferSizeEv,
                            __ZNK3acv8graphics11ImageBufferIfE18planePaddingOffsetEv,
                            __ZNK3acv8graphics11ImageBufferIfE4dataEv,
                            __ZNK3acv8graphics11ImageBufferIfE5validEv,
                            __ZNK3acv8graphics11ImageBufferIfE5widthEv,
                            __ZNK3acv8graphics11ImageBufferIfE6formatEv,
                            __ZNK3acv8graphics11ImageBufferIfE6heightEv,
                            __ZNK3acv8graphics11ImageBufferIfE6strideEv,
                            __ZNK3acv8graphics11ImageBufferIfE9isMinimalEv,
                            __ZNK3acv8graphics11ImageBufferIhE10bufferSizeEv,
                            __ZNK3acv8graphics11ImageBufferIhE18planePaddingOffsetEv,
                            __ZNK3acv8graphics11ImageBufferIhE4dataEv,
                            __ZNK3acv8graphics11ImageBufferIhE5validEv,
                            __ZNK3acv8graphics11ImageBufferIhE5widthEv,
                            __ZNK3acv8graphics11ImageBufferIhE6formatEv,
                            __ZNK3acv8graphics11ImageBufferIhE6heightEv,
                            __ZNK3acv8graphics11ImageBufferIhE6strideEv,
                            __ZNK3acv8graphics11ImageBufferIhE9isMinimalEv,
                            __ZNK3acv8graphics11ImageBufferItE10bufferSizeEv,
                            __ZNK3acv8graphics11ImageBufferItE18planePaddingOffsetEv,
                            __ZNK3acv8graphics11ImageBufferItE4dataEv,
                            __ZNK3acv8graphics11ImageBufferItE5validEv,
                            __ZNK3acv8graphics11ImageBufferItE5widthEv,
                            __ZNK3acv8graphics11ImageBufferItE6formatEv,
                            __ZNK3acv8graphics11ImageBufferItE6heightEv,
                            __ZNK3acv8graphics11ImageBufferItE6strideEv,
                            __ZNK3acv8graphics11ImageBufferItE9isMinimalEv,
                            __ZNK3acv8graphics6ImageTIKfEclERKNS_8geometry4RectIiEE,
                            __ZNK3acv8graphics6ImageTIKfEclEiii,
                            __ZNK3acv8graphics6ImageTIKfEcvRKS3_Ev,
                            __ZNK3acv8graphics6ImageTIKhEclERKNS_8geometry4RectIiEE,
                            __ZNK3acv8graphics6ImageTIKhEclEiii,
                            __ZNK3acv8graphics6ImageTIKhEcvRKS3_Ev,
                            __ZNK3acv8graphics6ImageTIKtEclERKNS_8geometry4RectIiEE,
                            __ZNK3acv8graphics6ImageTIKtEclEiii,
                            __ZNK3acv8graphics6ImageTIKtEcvRKS3_Ev,
                            __ZNK3acv8graphics6ImageTIfEclERKNS_8geometry4RectIiEE,
                            __ZNK3acv8graphics6ImageTIfEclEiii,
                            __ZNK3acv8graphics6ImageTIfEcvRKNS1_IKfEEEv,
                            __ZNK3acv8graphics6ImageTIhEclERKNS_8geometry4RectIiEE,
                            __ZNK3acv8graphics6ImageTIhEclEiii,
                            __ZNK3acv8graphics6ImageTIhEcvRKNS1_IKhEEEv,
                            __ZNK3acv8graphics6ImageTItEclERKNS_8geometry4RectIiEE,
                            __ZNK3acv8graphics6ImageTItEclEiii,
                            __ZNK3acv8graphics6ImageTItEcvRKNS1_IKtEEEv,
                            __ZNSt3__117__call_once_proxyINS_5tupleIJRFvvEEEEEEvPv,
                            __ZTIN3acv6vision10estimation20RansacPlaneEstimatorIdEE,
                            __ZTIN3acv6vision10estimation20RansacPlaneEstimatorIfEE,
                            __ZTIN3acv6vision10estimation26LeastSquaresPlaneEstimatorIdEE,
                            __ZTIN3acv6vision10estimation26LeastSquaresPlaneEstimatorIfEE,
                            __ZTSN3acv6vision10estimation20RansacPlaneEstimatorIdEE,
                            __ZTSN3acv6vision10estimation20RansacPlaneEstimatorIfEE,
                            __ZTSN3acv6vision10estimation26LeastSquaresPlaneEstimatorIdEE,
                            __ZTSN3acv6vision10estimation26LeastSquaresPlaneEstimatorIfEE,
                            __ZTVN3acv6vision10estimation20RansacPlaneEstimatorIdEE,
                            __ZTVN3acv6vision10estimation20RansacPlaneEstimatorIfEE,
                            __ZTVN3acv6vision10estimation26LeastSquaresPlaneEstimatorIdEE,
                            __ZTVN3acv6vision10estimation26LeastSquaresPlaneEstimatorIfEE,
                            __ZZN3acv8geometry11computeMeanIN3cva6MatrixIdLj3ELj1EEENS0_10PointCloudIdEEEET_RKT0_E7initVal,
                            __ZZN3acv8geometry11computeMeanIN3cva6MatrixIdLj3ELj1EEENS0_17IndexedPointCloudIdEEEET_RKT0_E7initVal,
                            __ZZN3acv8geometry11computeMeanIN3cva6MatrixIfLj2ELj1EEENSt3__15arrayIS4_Lm8EEEEET_RKT0_E7initVal,
                            __ZZN3acv8geometry11computeMeanIN3cva6MatrixIfLj3ELj1EEENS0_10PointCloudIfEEEET_RKT0_E7initVal,
                            __ZZN3acv8geometry11computeMeanIN3cva6MatrixIfLj3ELj1EEENS0_17IndexedPointCloudIfEEEET_RKT0_E7initVal,
                            __ZZNK3acv6vision10algorithms19TemporalPlanarModel22AxisAlignedBoundingBoxIfE19cornersInsideBoundsEvE7epsilon,
                            __ZZNK3acv6vision10algorithms19TemporalPlanarModel22AxisAlignedBoundingBoxIfE19cornersInsideBoundsEvE9epsilon2f ]
...
