--- !tapi-tbd-v3
archs:                 [ armv7, armv7s, arm64, arm64e ]
platform:              ios
flags:                 [ flat_namespace ]
install-name:          /usr/lib/updaters/libSavageUpdater_iOS.dylib
current-version:       1
compatibility-version: 1
objc-constraint:       retain_release
exports:
  - archs:                [ armv7, armv7s, arm64, arm64e ]
    symbols:              [ _GetRelevantMeasurementTags,
                            _GetYonkersMeasurementTags,
                            _SavageCFDictionarySetBoolean,
                            _SavageCFDictionarySetData,
                            _SavageCFDictionarySetInteger32,
                            _SavageCFStringToUInt32, _SavageSafeRetain,
                            _SavageUpdaterCreate, _SavageUpdaterExecCommand,
                            _SavageUpdaterIsDone, _SavageUpdaterSupported,
                            __ZN12SavageDevice10myInstanceE,
                            __ZN12SavageDevice11SetupDeviceEv,
                            __ZN12SavageDevice11getInstanceEv,
                            __ZN12SavageDevice14PrePersonalizeEj,
                            __ZN12SavageDevice15destroyInstanceEv,
                            __ZN12SavageDevice16SavageDeviceOpenEv,
                            __ZN12SavageDevice17SavageDeviceCloseEv,
                            __ZN12SavageDevice18CreateCertInfoBlobEP25SavageToBeCertifiedBlob_t,
                            __ZN12SavageDevice18CreateNGIDProvBlobEP20SavageNGIDProvBlob_t,
                            __ZN12SavageDevice20CreateDeviceInfoDictEP14__CFDictionary,
                            __ZN12SavageDevice23checkProvisioningStatusEv,
                            __ZN12SavageDevice6FusingEjPKhj,
                            __ZN12SavageDevice9PreFusingEj,
                            __ZN12SavageDeviceC1Ev, __ZN12SavageDeviceC2Ev,
                            __ZN12SavageDeviceD1Ev, __ZN12SavageDeviceD2Ev,
                            __ZN13YonkersDevice10myInstanceE,
                            __ZN13YonkersDevice11SetupDeviceEv,
                            __ZN13YonkersDevice11getInstanceEv,
                            __ZN13YonkersDevice14PrePersonalizeEj,
                            __ZN13YonkersDevice15destroyInstanceEv,
                            __ZN13YonkersDevice17YonkersDeviceOpenEv,
                            __ZN13YonkersDevice18CreateCertInfoBlobEP26YonkersToBeCertifiedBlob_t,
                            __ZN13YonkersDevice18YonkersDeviceCloseEv,
                            __ZN13YonkersDevice20CreateDeviceInfoDictEP14__CFDictionary,
                            __ZN13YonkersDevice23checkProvisioningStatusEv,
                            __ZN13YonkersDevice6FusingEjPKhj,
                            __ZN13YonkersDevice9PreFusingEj,
                            __ZN13YonkersDeviceC1Ev, __ZN13YonkersDeviceC2Ev,
                            __ZN13YonkersDeviceD1Ev, __ZN13YonkersDeviceD2Ev,
                            __ZN22SavageUpdateController10myInstanceE,
                            __ZN22SavageUpdateController11execCommandEPK10__CFStringPK14__CFDictionaryPS5_,
                            __ZN22SavageUpdateController11getFirmwareEv,
                            __ZN22SavageUpdateController11getInstanceEv,
                            __ZN22SavageUpdateController14getTSSResponseEv,
                            __ZN22SavageUpdateController15destroyInstanceEv,
                            __ZN22SavageUpdateController17eventCmdQueryInfoEv,
                            __ZN22SavageUpdateController20formatAndStitchFilesEv,
                            __ZN22SavageUpdateController20getSignedCertificateEPKhj,
                            __ZN22SavageUpdateController20validateSignatureLenEPhPj,
                            __ZN22SavageUpdateController22writeFilesToFileSystemEv,
                            __ZN22SavageUpdateController24eventCmdPerformNextStageEv,
                            __ZN22SavageUpdateController5startEPK14__CFDictionaryPP9__CFError,
                            __ZN22SavageUpdateController9SavageLogEPKcz,
                            __ZN22SavageUpdateControllerC1Ev,
                            __ZN22SavageUpdateControllerC2Ev,
                            __ZN22SavageUpdateControllerD1Ev,
                            __ZN22SavageUpdateControllerD2Ev,
                            __ZN23YonkersUpdateController10YonkersLogEPKcz,
                            __ZN23YonkersUpdateController10myInstanceE,
                            __ZN23YonkersUpdateController11execCommandEPK10__CFStringPK14__CFDictionaryPS5_,
                            __ZN23YonkersUpdateController11getFirmwareEv,
                            __ZN23YonkersUpdateController11getInstanceEv,
                            __ZN23YonkersUpdateController14getTSSResponseEv,
                            __ZN23YonkersUpdateController15destroyInstanceEv,
                            __ZN23YonkersUpdateController17eventCmdQueryInfoEv,
                            __ZN23YonkersUpdateController20formatAndStitchFilesEv,
                            __ZN23YonkersUpdateController20getSignedCertificateEPhj,
                            __ZN23YonkersUpdateController20validateSignatureLenEPhPjS1_,
                            __ZN23YonkersUpdateController22writeFilesToFileSystemEv,
                            __ZN23YonkersUpdateController24eventCmdPerformNextStageEv,
                            __ZN23YonkersUpdateController5startEPK14__CFDictionaryPP9__CFError,
                            __ZN23YonkersUpdateControllerC1Ev,
                            __ZN23YonkersUpdateControllerC2Ev,
                            __ZN23YonkersUpdateControllerD1Ev,
                            __ZN23YonkersUpdateControllerD2Ev, ___osLogPearlLib,
                            ___osLogPearlLibTrace, __hexStringToBytes,
                            _checkSavageProvisioning,
                            _checkSavagePublicKeyMatches, _checkSecureStreaming,
                            _decompressReferenceFrames, _decryptFDRData,
                            _encryptFDRData, _getPearlSelfTestResult,
                            _getSavageProvisioningData,
                            _kSavageCmdPerformNextStage, _kSavageCmdQueryInfo,
                            _kSavageErrorDomain, _kYonkersCmdPerformNextStage,
                            _kYonkersCmdQueryInfo, _kYonkersErrorDomain,
                            _makeCFErrorWithDomain, _overridePCECalibration,
                            _prewarmCamera, _verifyFDRData ]
...
